	.arch armv8-a
	.file	"mandelbrot_neon128.c"
// GNU C17 (GCC) version 13.2.1 20231011 (Red Hat 13.2.1-4) (aarch64-redhat-linux)
//	compiled by GNU C version 13.2.1 20231011 (Red Hat 13.2.1-4), GMP version 6.2.1, MPFR version 4.2.0-p12, MPC version 1.3.1, isl version none
// GGC heuristics: --param ggc-min-expand=100 --param ggc-min-heapsize=131072
// options passed: -mlittle-endian -mabi=lp64 -g -O3
	.text
.Ltext0:
	.file 0 "/home/adilh/Downloads/mandelbrot" "mandelbrot_neon128.c"
	.section	.rodata.str1.8,"aMS",@progbits,1
	.align	3
.LC0:
	.string	"Usage:   %s <xmin> <xmax> <ymin> <ymax> <maxiter> <xres> <yres> <out.ppm>\n"
	.align	3
.LC1:
	.string	"Example: %s 0.27085 0.27100 0.004640 0.004810 1000 640 480 pic.ppm\n"
	.align	3
.LC2:
	.string	"xmin: %f, xmax: %f, ymin: %f, ymax: %f\n"
	.align	3
.LC3:
	.string	"xres: %f, yres: %f\n"
	.align	3
.LC4:
	.string	"wb"
	.align	3
.LC5:
	.string	"Error opening file: %s\n"
	.align	3
.LC6:
	.string	"P6\n# Mandelbrot, maxiter=%d\n"
	.section	.text.startup,"ax",@progbits
	.align	2
	.p2align 4,,11
	.global	main
	.type	main, %function
main:
.LVL0:
.LFB3922:
	.file 1 "mandelbrot_neon128.c"
	.loc 1 20 1 view -0
	.cfi_startproc
	.loc 1 22 3 view .LVU1
// mandelbrot_neon128.c:20: {
	.loc 1 20 1 is_stmt 0 view .LVU2
	stp	x29, x30, [sp, -256]!	//,,,
	.cfi_def_cfa_offset 256
	.cfi_offset 29, -256
	.cfi_offset 30, -248
	mov	x29, sp	//,
	stp	x19, x20, [sp, 16]	//,,
	stp	x21, x22, [sp, 32]	//,,
	.cfi_offset 19, -240
	.cfi_offset 20, -232
	.cfi_offset 21, -224
	.cfi_offset 22, -216
	mov	x21, x1	// argv, tmp259
	str	x23, [sp, 48]	//,
	str	d14, [sp, 56]	//,
	stp	d8, d9, [sp, 64]	//,,
	stp	d10, d11, [sp, 80]	//,,
	stp	d12, d13, [sp, 96]	//,,
	.cfi_offset 23, -208
	.cfi_offset 78, -200
	.cfi_offset 72, -192
	.cfi_offset 73, -184
	.cfi_offset 74, -176
	.cfi_offset 75, -168
	.cfi_offset 76, -160
	.cfi_offset 77, -152
// mandelbrot_neon128.c:22:   if (argc != 9) {
	.loc 1 22 6 view .LVU3
	cmp	w0, 9	// tmp258,
	bne	.L16		//,
	.loc 1 33 3 is_stmt 1 view .LVU4
.LVL1:
.LBB94:
.LBI94:
	.file 2 "/usr/include/bits/stdlib-float.h"
	.loc 2 25 1 view .LVU5
.LBB95:
	.loc 2 27 3 view .LVU6
// /usr/include/bits/stdlib-float.h:27:   return strtod (__nptr, (char **) NULL);
	.loc 2 27 10 is_stmt 0 view .LVU7
	ldr	x0, [x21, 8]	//, MEM[(char * *)argv_56(D) + 8B]
.LVL2:
	.loc 2 27 10 view .LVU8
	mov	x1, 0	//,
.LVL3:
	.loc 2 27 10 view .LVU9
	stp	q4, q5, [sp, 112]	// Zx2, Zy2, %sfp
	bl	strtod		//
.LVL4:
	.loc 2 27 10 view .LVU10
.LBE95:
.LBE94:
// mandelbrot_neon128.c:33:   const float32x4_t xmin = vdupq_n_f32(atof(argv[1]));
	.loc 1 33 28 discriminator 1 view .LVU11
	fcvt	s9, d0	// _4, tmp260
.LVL5:
	.loc 1 34 3 is_stmt 1 view .LVU12
.LBB96:
.LBI96:
	.loc 2 25 1 view .LVU13
.LBB97:
	.loc 2 27 3 view .LVU14
// /usr/include/bits/stdlib-float.h:27:   return strtod (__nptr, (char **) NULL);
	.loc 2 27 10 is_stmt 0 view .LVU15
	ldr	x0, [x21, 16]	//, MEM[(char * *)argv_56(D) + 16B]
	mov	x1, 0	//,
	bl	strtod		//
.LVL6:
	.loc 2 27 10 view .LVU16
.LBE97:
.LBE96:
// mandelbrot_neon128.c:34:   const float32x4_t xmax = vdupq_n_f32(atof(argv[2]));
	.loc 1 34 28 discriminator 1 view .LVU17
	fcvt	s8, d0	// _6, tmp261
.LVL7:
	.loc 1 35 3 is_stmt 1 view .LVU18
.LBB98:
.LBI98:
	.loc 2 25 1 view .LVU19
.LBB99:
	.loc 2 27 3 view .LVU20
// /usr/include/bits/stdlib-float.h:27:   return strtod (__nptr, (char **) NULL);
	.loc 2 27 10 is_stmt 0 view .LVU21
	ldr	x0, [x21, 24]	//, MEM[(char * *)argv_56(D) + 24B]
	mov	x1, 0	//,
	bl	strtod		//
.LVL8:
	.loc 2 27 10 view .LVU22
.LBE99:
.LBE98:
// mandelbrot_neon128.c:35:   const float32x4_t ymin = vdupq_n_f32(atof(argv[3]));
	.loc 1 35 28 discriminator 1 view .LVU23
	fcvt	s12, d0	// _8, tmp262
.LVL9:
	.loc 1 36 3 is_stmt 1 view .LVU24
.LBB100:
.LBI100:
	.loc 2 25 1 view .LVU25
.LBB101:
	.loc 2 27 3 view .LVU26
// /usr/include/bits/stdlib-float.h:27:   return strtod (__nptr, (char **) NULL);
	.loc 2 27 10 is_stmt 0 view .LVU27
	ldr	x0, [x21, 32]	//, MEM[(char * *)argv_56(D) + 32B]
	mov	x1, 0	//,
	bl	strtod		//
.LVL10:
	.loc 2 27 10 view .LVU28
	fmov	d11, d0	// tmp263,
.LBE101:
.LBE100:
// mandelbrot_neon128.c:38:   printf("xmin: %f, xmax: %f, ymin: %f, ymax: %f\n", xmin[0], xmax[0], ymin[0], ymax[0]);
	.loc 1 38 3 view .LVU29
	fcvt	d1, s8	//, _6
	fcvt	d0, s9	//, _4
	fcvt	d2, s12	//, _8
	adrp	x0, .LC2	// tmp193,
	add	x0, x0, :lo12:.LC2	//, tmp193,
// mandelbrot_neon128.c:36:   const float32x4_t ymax = vdupq_n_f32(atof(argv[4]));
	.loc 1 36 28 discriminator 1 view .LVU30
	fcvt	s11, d11	// _10, tmp263
.LVL11:
	.loc 1 38 3 is_stmt 1 view .LVU31
	fcvt	d3, s11	//, _10
	bl	printf		//
.LVL12:
	.loc 1 41 3 view .LVU32
.LBB102:
.LBI102:
	.file 3 "/usr/include/stdlib.h"
	.loc 3 481 1 view .LVU33
.LBB103:
	.loc 3 483 3 view .LVU34
// /usr/include/stdlib.h:483:   return (int) strtol (__nptr, (char **) NULL, 10);
	.loc 3 483 16 is_stmt 0 view .LVU35
	ldr	x0, [x21, 40]	//, MEM[(char * *)argv_56(D) + 40B]
	mov	w2, 10	//,
	mov	x1, 0	//,
	bl	strtol		//
.LVL13:
// /usr/include/stdlib.h:483:   return (int) strtol (__nptr, (char **) NULL, 10);
	.loc 3 483 10 discriminator 1 view .LVU36
	fmov	s10, w0	// _102, _104
.LVL14:
// /usr/include/stdlib.h:483:   return (int) strtol (__nptr, (char **) NULL, 10);
	.loc 3 483 16 view .LVU37
	mov	x20, x0	// tmp264,
.LVL15:
	.loc 3 483 16 view .LVU38
.LBE103:
.LBE102:
	.loc 1 44 3 is_stmt 1 view .LVU39
// mandelbrot_neon128.c:44:   const float32x4_t xres = vdupq_n_f32(strtol(argv[6], NULL, 10));
	.loc 1 44 40 is_stmt 0 view .LVU40
	mov	w2, 10	//,
	ldr	x0, [x21, 48]	//, MEM[(char * *)argv_56(D) + 48B]
	mov	x1, 0	//,
	bl	strtol		//
.LVL16:
// mandelbrot_neon128.c:44:   const float32x4_t xres = vdupq_n_f32(strtol(argv[6], NULL, 10));
	.loc 1 44 28 discriminator 1 view .LVU41
	scvtf	s14, x0	// _18, tmp265
.LVL17:
	.loc 1 45 3 is_stmt 1 view .LVU42
// mandelbrot_neon128.c:45:   const float32x4_t yres = vdupq_n_f32(strtol(argv[7], NULL, 10)); //(xres*(ymax-ymin))/(xmax-xmin);
	.loc 1 45 40 is_stmt 0 view .LVU43
	ldr	x0, [x21, 56]	//, MEM[(char * *)argv_56(D) + 56B]
	mov	w2, 10	//,
	mov	x1, 0	//,
	bl	strtol		//
.LVL18:
// mandelbrot_neon128.c:45:   const float32x4_t yres = vdupq_n_f32(strtol(argv[7], NULL, 10)); //(xres*(ymax-ymin))/(xmax-xmin);
	.loc 1 45 28 discriminator 1 view .LVU44
	scvtf	s13, x0	// _21, tmp266
.LVL19:
	.loc 1 47 3 is_stmt 1 view .LVU45
	fcvt	d0, s14	//, _18
	adrp	x1, .LC3	// tmp200,
	add	x0, x1, :lo12:.LC3	//, tmp200,
	fcvt	d1, s13	//, _21
	bl	printf		//
.LVL20:
	.loc 1 49 3 view .LVU46
// mandelbrot_neon128.c:49:   const char* filename = argv[8];
	.loc 1 49 15 is_stmt 0 view .LVU47
	ldr	x23, [x21, 64]	// filename, MEM[(char * *)argv_56(D) + 64B]
.LVL21:
	.loc 1 52 3 is_stmt 1 view .LVU48
// mandelbrot_neon128.c:52:   FILE * fp = fopen(filename,"wb");
	.loc 1 52 15 is_stmt 0 view .LVU49
	adrp	x1, .LC4	// tmp202,
	add	x1, x1, :lo12:.LC4	//, tmp202,
	mov	x0, x23	//, filename
	bl	fopen		//
.LVL22:
// mandelbrot_neon128.c:53:   if (fp == NULL) {
	.loc 1 53 6 view .LVU50
	ldp	q4, q5, [sp, 112]	// Zx2, Zy2, %sfp
// mandelbrot_neon128.c:52:   FILE * fp = fopen(filename,"wb");
	.loc 1 52 15 view .LVU51
	mov	x22, x0	// fp, tmp267
.LVL23:
	.loc 1 53 3 is_stmt 1 view .LVU52
// mandelbrot_neon128.c:53:   if (fp == NULL) {
	.loc 1 53 6 is_stmt 0 view .LVU53
	cbz	x0, .L17	// fp,
	.loc 1 57 3 is_stmt 1 view .LVU54
.LVL24:
	.loc 1 60 3 view .LVU55
	mov	w2, w20	//, _104
	adrp	x1, .LC6	// tmp207,
	add	x1, x1, :lo12:.LC6	//, tmp207,
	stp	q4, q5, [sp, 112]	// Zx2, Zy2, %sfp
	bl	fprintf		//
.LVL25:
	.loc 1 65 3 view .LVU56
.LBB104:
.LBI104:
	.file 4 "/usr/lib/gcc/aarch64-redhat-linux/13/include/arm_neon.h"
	.loc 4 1694 1 view .LVU57
.LBB105:
	.loc 4 1696 3 view .LVU58
// /usr/lib/gcc/aarch64-redhat-linux/13/include/arm_neon.h:1696:   return __a - __b;
	.loc 4 1696 14 is_stmt 0 view .LVU59
	fsub	s8, s8, s9	// tmp208, _6, _4
.LVL26:
	.loc 4 1696 14 view .LVU60
.LBE105:
.LBE104:
.LBB106:
.LBB107:
	fsub	s11, s11, s12	// tmp209, _10, _8
.LVL27:
	.loc 4 1696 14 view .LVU61
.LBE107:
.LBE106:
// mandelbrot_neon128.c:73:   for (j = 0; j < strtol(argv[6], NULL, 10); j++) { //iterate through y axis
	.loc 1 73 19 discriminator 1 view .LVU62
	ldr	x0, [x21, 48]	//, MEM[(char * *)argv_56(D) + 48B]
	mov	w2, 10	//,
// mandelbrot_neon128.c:73:   for (j = 0; j < strtol(argv[6], NULL, 10); j++) { //iterate through y axis
	.loc 1 73 3 view .LVU63
	ldp	q4, q5, [sp, 112]	// Zx2, Zy2, %sfp
// mandelbrot_neon128.c:73:   for (j = 0; j < strtol(argv[6], NULL, 10); j++) { //iterate through y axis
	.loc 1 73 19 discriminator 1 view .LVU64
	mov	x1, 0	//,
// mandelbrot_neon128.c:65:   const float32x4_t stepx=(vsubq_f32(xmax,xmin)/xres);
	.loc 1 65 21 discriminator 1 view .LVU65
	fdiv	s8, s8, s14	// _178, tmp208, _18
.LVL28:
	.loc 1 66 3 is_stmt 1 view .LVU66
.LBB109:
.LBI106:
	.loc 4 1694 1 view .LVU67
.LBB108:
	.loc 4 1696 3 view .LVU68
	.loc 4 1696 3 is_stmt 0 view .LVU69
.LBE108:
.LBE109:
// mandelbrot_neon128.c:73:   for (j = 0; j < strtol(argv[6], NULL, 10); j++) { //iterate through y axis
	.loc 1 73 3 view .LVU70
	mov	x23, 0	// ivtmp.34,
.LVL29:
// mandelbrot_neon128.c:66:   const float32x4_t stepy=(vsubq_f32(ymax,ymin)/yres);
	.loc 1 66 21 discriminator 1 view .LVU71
	fdiv	s11, s11, s13	// _180, tmp209, _21
.LVL30:
	.loc 1 68 3 is_stmt 1 view .LVU72
	.loc 1 70 3 view .LVU73
	.loc 1 71 3 view .LVU74
	.loc 1 73 3 view .LVU75
	.loc 1 73 17 discriminator 1 view .LVU76
	stp	q4, q5, [sp, 112]	// Zx2, Zy2, %sfp
// mandelbrot_neon128.c:73:   for (j = 0; j < strtol(argv[6], NULL, 10); j++) { //iterate through y axis
	.loc 1 73 19 is_stmt 0 discriminator 1 view .LVU77
	bl	strtol		//
.LVL31:
// mandelbrot_neon128.c:73:   for (j = 0; j < strtol(argv[6], NULL, 10); j++) { //iterate through y axis
	.loc 1 73 17 discriminator 1 view .LVU78
	cmp	x0, x23	// tmp269, ivtmp.34
	ldp	q4, q5, [sp, 112]	// Zx2, Zy2, %sfp
	ble	.L18		//,
.LVL32:
	.p2align 3,,7
.L11:
.LBB110:
	.loc 1 74 5 is_stmt 1 view .LVU79
	.loc 1 75 5 view .LVU80
// mandelbrot_neon128.c:75:     y = ymin + mj * stepy; 
	.loc 1 75 7 is_stmt 0 view .LVU81
	scvtf	s7, w23	// tmp210, ivtmp.34
// mandelbrot_neon128.c:76:     for(i = 0; i < strtol(argv[7], NULL, 10); i++) { //iterate through x axis
	.loc 1 76 5 view .LVU82
	mov	x20, 0	// ivtmp.31,
// mandelbrot_neon128.c:75:     y = ymin + mj * stepy; 
	.loc 1 75 7 view .LVU83
	fmadd	s7, s7, s11, s12	// _182, tmp210, _180, _8
	dup	v7.4s, v7.s[0]	// y, _182
.LVL33:
	.loc 1 76 5 is_stmt 1 view .LVU84
	.p2align 3,,7
.L5:
	.loc 1 76 18 discriminator 1 view .LVU85
// mandelbrot_neon128.c:76:     for(i = 0; i < strtol(argv[7], NULL, 10); i++) { //iterate through x axis
	.loc 1 76 20 is_stmt 0 discriminator 1 view .LVU86
	ldr	x0, [x21, 56]	//, MEM[(char * *)argv_56(D) + 56B]
	mov	w2, 10	//,
	mov	x1, 0	//,
	stp	q7, q4, [sp, 112]	// y, Zx2, %sfp
.LVL34:
	.loc 1 76 20 discriminator 1 view .LVU87
	str	q5, [sp, 144]	// Zy2, %sfp
.LVL35:
	.loc 1 76 20 discriminator 1 view .LVU88
	bl	strtol		//
.LVL36:
// mandelbrot_neon128.c:76:     for(i = 0; i < strtol(argv[7], NULL, 10); i++) { //iterate through x axis
	.loc 1 76 18 discriminator 1 view .LVU89
	cmp	x0, x20	// tmp268, ivtmp.31
	ldp	q7, q4, [sp, 112]	// y, Zx2, %sfp
	ldr	q5, [sp, 144]	// Zy2, %sfp
	movi	v13.4s, 0	// tmp250
	fmov	v6.4s, 4.0e+0	// tmp254
	ble	.L19		//,
.LBB111:
	.loc 1 77 9 is_stmt 1 view .LVU90
.LVL37:
	.loc 1 78 9 view .LVU91
// mandelbrot_neon128.c:85:         float32x4_t mk = vdupq_n_f32(k);
	.loc 1 85 26 is_stmt 0 view .LVU92
	scvtf	s0, w19	// _29, k
// mandelbrot_neon128.c:84:         float32x4_t mmaxiter = vdupq_n_f32(maxiter);
	.loc 1 84 32 view .LVU93
	scvtf	s16, s10	// _28, _102
.LBB112:
.LBB113:
// /usr/lib/gcc/aarch64-redhat-linux/13/include/arm_neon.h:338:   return __a + __b;
	.loc 4 338 14 view .LVU94
	fadd	v1.4s, v4.4s, v5.4s	// tmp222, Zx2, Zy2
.LBE113:
.LBE112:
// mandelbrot_neon128.c:78:         x = xmin + mi * stepx;
	.loc 1 78 11 view .LVU95
	scvtf	s2, w20	// tmp213, ivtmp.31
.LBB117:
.LBB118:
// /usr/lib/gcc/aarch64-redhat-linux/13/include/arm_neon.h:10805:   return (float32x4_t) {__a, __a, __a, __a};
	.loc 4 10805 10 view .LVU96
	dup	v14.4s, v0.s[0]	// _117, _29
.LBE118:
.LBE117:
.LBB120:
.LBB121:
	dup	v16.4s, v16.s[0]	// _116, _28
.LBE121:
.LBE120:
.LBB123:
.LBB124:
// /usr/lib/gcc/aarch64-redhat-linux/13/include/arm_neon.h:9042:   return (uint32x4_t) (__a < __b);
	.loc 4 9042 28 view .LVU97
	fcmgt	v0.4s, v6.4s, v1.4s	// tmp223, tmp254, tmp222
.LBE124:
.LBE123:
// mandelbrot_neon128.c:78:         x = xmin + mi * stepx;
	.loc 1 78 11 view .LVU98
	fmadd	s2, s2, s8, s9	// _184, tmp213, _178, _4
.LBB128:
.LBB129:
// /usr/lib/gcc/aarch64-redhat-linux/13/include/arm_neon.h:9042:   return (uint32x4_t) (__a < __b);
	.loc 4 9042 28 view .LVU99
	fcmgt	v3.4s, v16.4s, v14.4s	// _31, _116, _117
.LBE129:
.LBE128:
.LBB132:
.LBB133:
// /usr/lib/gcc/aarch64-redhat-linux/13/include/arm_neon.h:1136:   return __a & __b;
	.loc 4 1136 14 view .LVU100
	and	v0.16b, v0.16b, v3.16b	// tmp226, tmp223, _31
.LBE133:
.LBE132:
// mandelbrot_neon128.c:78:         x = xmin + mi * stepx;
	.loc 1 78 11 view .LVU101
	dup	v2.4s, v2.s[0]	// x, _184
.LVL38:
	.loc 1 79 9 is_stmt 1 view .LVU102
	.loc 1 80 9 view .LVU103
	.loc 1 81 9 view .LVU104
	.loc 1 82 9 view .LVU105
	.loc 1 84 9 view .LVU106
.LBB137:
.LBI120:
	.loc 4 10803 1 view .LVU107
.LBB122:
	.loc 4 10805 3 view .LVU108
	.loc 4 10805 3 is_stmt 0 view .LVU109
.LBE122:
.LBE137:
	.loc 1 85 9 is_stmt 1 view .LVU110
.LBB138:
.LBI117:
	.loc 4 10803 1 view .LVU111
.LBB119:
	.loc 4 10805 3 view .LVU112
	.loc 4 10805 3 is_stmt 0 view .LVU113
.LBE119:
.LBE138:
	.loc 1 86 9 is_stmt 1 view .LVU114
	.loc 1 87 9 view .LVU115
	.loc 1 88 9 view .LVU116
	.loc 1 89 7 view .LVU117
	.loc 1 89 19 discriminator 1 view .LVU118
.LBB139:
.LBI128:
	.loc 4 9040 1 view .LVU119
.LBB130:
	.loc 4 9042 3 view .LVU120
	.loc 4 9042 3 is_stmt 0 view .LVU121
.LBE130:
.LBE139:
.LBB140:
.LBI112:
	.loc 4 336 1 is_stmt 1 view .LVU122
.LBB114:
	.loc 4 338 3 view .LVU123
	.loc 4 338 3 is_stmt 0 view .LVU124
.LBE114:
.LBE140:
.LBB141:
.LBI123:
	.loc 4 9040 1 is_stmt 1 view .LVU125
.LBB125:
	.loc 4 9042 3 view .LVU126
	.loc 4 9042 3 is_stmt 0 view .LVU127
.LBE125:
.LBE141:
.LBB142:
.LBI132:
	.loc 4 1134 1 is_stmt 1 view .LVU128
.LBB134:
	.loc 4 1136 3 view .LVU129
	.loc 4 1136 3 is_stmt 0 view .LVU130
.LBE134:
.LBE142:
.LBB143:
.LBI143:
	.loc 4 11465 1 is_stmt 1 view .LVU131
	.loc 4 11467 3 view .LVU132
.LBB144:
	.loc 4 11467 10 view .LVU133
	.loc 4 11467 10 discriminator 1 view .LVU134
	.loc 4 11467 10 is_stmt 0 discriminator 1 view .LVU135
	umov	w0, v0.s[3]	// tmp227, tmp226,
.LBE144:
.LBE143:
// mandelbrot_neon128.c:89:       for (k = 1; vdups_laneq_u32(vandq_u32(vcltq_f32(mk,mmaxiter), vcltq_f32(vaddq_f32(Zx2,Zy2), mcl2)),3); k++) {
	.loc 1 89 19 discriminator 5 view .LVU136
	cbz	w0, .L12	// tmp227,
// mandelbrot_neon128.c:80:         float32x4_t Zy = vdupq_n_f32(0.0);
	.loc 1 80 26 view .LVU137
	movi	v1.4s, 0	// Zy
// mandelbrot_neon128.c:89:       for (k = 1; vdups_laneq_u32(vandq_u32(vcltq_f32(mk,mmaxiter), vcltq_f32(vaddq_f32(Zx2,Zy2), mcl2)),3); k++) {
	.loc 1 89 14 view .LVU138
	mov	w19, 1	// k,
.LVL39:
	.p2align 3,,7
.L7:
	.loc 1 90 13 is_stmt 1 view .LVU139
.LBB147:
.LBI147:
	.loc 4 336 1 view .LVU140
.LBB148:
	.loc 4 338 3 view .LVU141
.LBE148:
.LBE147:
.LBB152:
.LBB153:
// /usr/lib/gcc/aarch64-redhat-linux/13/include/arm_neon.h:1696:   return __a - __b;
	.loc 4 1696 14 is_stmt 0 view .LVU142
	fsub	v4.4s, v4.4s, v5.4s	// tmp229, Zx2, Zy2
.LVL40:
	.loc 4 1696 14 view .LVU143
.LBE153:
.LBE152:
// mandelbrot_neon128.c:89:       for (k = 1; vdups_laneq_u32(vandq_u32(vcltq_f32(mk,mmaxiter), vcltq_f32(vaddq_f32(Zx2,Zy2), mcl2)),3); k++) {
	.loc 1 89 111 discriminator 3 view .LVU144
	add	w19, w19, 1	// k, k,
.LVL41:
.LBB155:
.LBB149:
// /usr/lib/gcc/aarch64-redhat-linux/13/include/arm_neon.h:338:   return __a + __b;
	.loc 4 338 14 view .LVU145
	mov	v0.16b, v7.16b	// Zy, y
.LBE149:
.LBE155:
.LBB156:
.LBB157:
	fadd	v4.4s, v4.4s, v2.4s	// _87, tmp229, x
.LBE157:
.LBE156:
.LBB159:
.LBB150:
	fmla	v0.4s, v1.4s, v13.4s	// Zy, Zy, tmp250
.LBE150:
.LBE159:
.LBB160:
.LBB161:
// /usr/lib/gcc/aarch64-redhat-linux/13/include/arm_neon.h:996:   return __a * __b;
	.loc 4 996 14 view .LVU146
	fmul	v4.4s, v4.4s, v4.4s	// Zx2, _87, _87
.LBE161:
.LBE160:
.LBB163:
.LBB164:
	fmul	v5.4s, v0.4s, v0.4s	// Zy2, Zy, Zy
.LVL42:
	.loc 4 996 14 view .LVU147
.LBE164:
.LBE163:
.LBB166:
.LBB151:
// /usr/lib/gcc/aarch64-redhat-linux/13/include/arm_neon.h:338:   return __a + __b;
	.loc 4 338 14 view .LVU148
	mov	v1.16b, v0.16b	// Zy, Zy
.LVL43:
	.loc 4 338 14 view .LVU149
.LBE151:
.LBE166:
	.loc 1 91 13 is_stmt 1 view .LVU150
.LBB167:
.LBI152:
	.loc 4 1694 1 view .LVU151
.LBB154:
	.loc 4 1696 3 view .LVU152
	.loc 4 1696 3 is_stmt 0 view .LVU153
.LBE154:
.LBE167:
.LBB168:
.LBI156:
	.loc 4 336 1 is_stmt 1 view .LVU154
.LBB158:
	.loc 4 338 3 view .LVU155
	.loc 4 338 3 is_stmt 0 view .LVU156
.LBE158:
.LBE168:
	.loc 1 92 13 is_stmt 1 view .LVU157
.LBB169:
.LBI160:
	.loc 4 994 1 view .LVU158
.LBB162:
	.loc 4 996 3 view .LVU159
	.loc 4 996 3 is_stmt 0 view .LVU160
.LBE162:
.LBE169:
	.loc 1 93 13 is_stmt 1 view .LVU161
.LBB170:
.LBI163:
	.loc 4 994 1 view .LVU162
.LBB165:
	.loc 4 996 3 view .LVU163
	.loc 4 996 3 is_stmt 0 view .LVU164
.LBE165:
.LBE170:
	.loc 1 89 111 is_stmt 1 discriminator 3 view .LVU165
	.loc 1 89 19 discriminator 1 view .LVU166
.LBB171:
	.loc 4 9040 1 view .LVU167
.LBB131:
	.loc 4 9042 3 view .LVU168
	.loc 4 9042 3 is_stmt 0 view .LVU169
.LBE131:
.LBE171:
.LBB172:
	.loc 4 336 1 is_stmt 1 view .LVU170
.LBB115:
	.loc 4 338 3 view .LVU171
	.loc 4 338 3 is_stmt 0 view .LVU172
.LBE115:
.LBE172:
.LBB173:
	.loc 4 9040 1 is_stmt 1 view .LVU173
.LBB126:
	.loc 4 9042 3 view .LVU174
	.loc 4 9042 3 is_stmt 0 view .LVU175
.LBE126:
.LBE173:
.LBB174:
	.loc 4 1134 1 is_stmt 1 view .LVU176
.LBB135:
	.loc 4 1136 3 view .LVU177
	.loc 4 1136 3 is_stmt 0 view .LVU178
.LBE135:
.LBE174:
.LBB175:
	.loc 4 11465 1 is_stmt 1 view .LVU179
	.loc 4 11467 3 view .LVU180
.LBB145:
	.loc 4 11467 10 view .LVU181
	.loc 4 11467 10 discriminator 1 view .LVU182
	.loc 4 11467 10 is_stmt 0 discriminator 1 view .LVU183
.LBE145:
.LBE175:
.LBB176:
.LBB116:
// /usr/lib/gcc/aarch64-redhat-linux/13/include/arm_neon.h:338:   return __a + __b;
	.loc 4 338 14 view .LVU184
	fadd	v0.4s, v4.4s, v5.4s	// tmp230, Zx2, Zy2
.LVL44:
	.loc 4 338 14 view .LVU185
.LBE116:
.LBE176:
.LBB177:
.LBB127:
// /usr/lib/gcc/aarch64-redhat-linux/13/include/arm_neon.h:9042:   return (uint32x4_t) (__a < __b);
	.loc 4 9042 28 view .LVU186
	fcmgt	v0.4s, v6.4s, v0.4s	// tmp231, tmp254, tmp230
.LBE127:
.LBE177:
.LBB178:
.LBB136:
// /usr/lib/gcc/aarch64-redhat-linux/13/include/arm_neon.h:1136:   return __a & __b;
	.loc 4 1136 14 view .LVU187
	and	v0.16b, v0.16b, v3.16b	// tmp234, tmp231, _31
.LBE136:
.LBE178:
.LBB179:
.LBB146:
// /usr/lib/gcc/aarch64-redhat-linux/13/include/arm_neon.h:11467:   return __aarch64_vget_lane_any (__a, __b);
	.loc 4 11467 10 discriminator 1 view .LVU188
	umov	w0, v0.s[3]	// tmp235, tmp234,
.LBE146:
.LBE179:
// mandelbrot_neon128.c:89:       for (k = 1; vdups_laneq_u32(vandq_u32(vcltq_f32(mk,mmaxiter), vcltq_f32(vaddq_f32(Zx2,Zy2), mcl2)),3); k++) {
	.loc 1 89 19 discriminator 5 view .LVU189
	cbnz	w0, .L7	// tmp235,
.LVL45:
.L6:
	.loc 1 94 8 is_stmt 1 view .LVU190
	.loc 1 96 7 view .LVU191
.LBB180:
.LBI180:
	.loc 4 8197 1 view .LVU192
.LBB181:
	.loc 4 8199 3 view .LVU193
	.loc 4 8199 3 is_stmt 0 view .LVU194
.LBE181:
.LBE180:
.LBB183:
.LBI183:
	.loc 4 11465 1 is_stmt 1 view .LVU195
	.loc 4 11467 3 view .LVU196
.LBB184:
	.loc 4 11467 10 view .LVU197
	.loc 4 11467 10 discriminator 1 view .LVU198
	.loc 4 11467 10 is_stmt 0 discriminator 1 view .LVU199
.LBE184:
.LBE183:
.LBB186:
.LBB182:
// /usr/lib/gcc/aarch64-redhat-linux/13/include/arm_neon.h:8199:   return (uint32x4_t) (__a >= __b);
	.loc 4 8199 28 view .LVU200
	fcmge	v14.4s, v14.4s, v16.4s	// tmp236, _117, _116
.LVL46:
	.loc 4 8199 28 view .LVU201
	stp	q7, q4, [sp, 112]	// y, Zx2, %sfp
	str	q5, [sp, 144]	// Zy2, %sfp
.LBE182:
.LBE186:
.LBB187:
.LBB185:
// /usr/lib/gcc/aarch64-redhat-linux/13/include/arm_neon.h:11467:   return __aarch64_vget_lane_any (__a, __b);
	.loc 4 11467 10 discriminator 1 view .LVU202
	umov	w0, v14.s[3]	// tmp238, tmp236,
.LBE185:
.LBE187:
// mandelbrot_neon128.c:96:       if (vdups_laneq_u32(vcgeq_f32(mk, mmaxiter),3)) {
	.loc 1 96 10 discriminator 2 view .LVU203
	cbz	w0, .L8	// tmp238,
.LBB188:
	.loc 1 99 9 is_stmt 1 view .LVU204
// mandelbrot_neon128.c:100:         fwrite (black, 6, 1, fp);
	.loc 1 100 9 is_stmt 0 view .LVU205
	mov	x3, x22	//, fp
	add	x0, sp, 160	// tmp277,,
	mov	x2, 1	//,
	mov	x1, 6	//,
// mandelbrot_neon128.c:99:         const unsigned char black[] = {0, 0, 0, 0, 0, 0};
	.loc 1 99 29 view .LVU206
	str	wzr, [sp, 160]	//, MEM[(unsigned char[6] *)_183]
	add	x20, x20, 1	// ivtmp.31, ivtmp.31,
.LVL47:
	.loc 1 99 29 view .LVU207
	strh	wzr, [sp, 164]	//, MEM[(unsigned char[6] *)_183]
	.loc 1 100 9 is_stmt 1 view .LVU208
	bl	fwrite		//
.LVL48:
	.loc 1 100 9 is_stmt 0 view .LVU209
.LBE188:
	ldp	q7, q4, [sp, 112]	// y, Zx2, %sfp
	ldr	q5, [sp, 144]	// Zy2, %sfp
	.loc 1 121 8 is_stmt 1 view .LVU210
.LBE111:
	.loc 1 76 48 discriminator 2 view .LVU211
.LVL49:
	.loc 1 76 48 is_stmt 0 discriminator 2 view .LVU212
	b	.L5		//
.LVL50:
	.p2align 2,,3
.L8:
.LBB198:
.LBB189:
	.loc 1 111 9 is_stmt 1 view .LVU213
	.loc 1 112 9 view .LVU214
	.loc 1 113 9 view .LVU215
	.loc 1 114 9 view .LVU216
.LBB190:
.LBI190:
	.loc 4 21310 1 view .LVU217
.LBB191:
	.loc 4 21312 3 view .LVU218
// /usr/lib/gcc/aarch64-redhat-linux/13/include/arm_neon.h:21312:   return __builtin_aarch64_lshrv4si_uus (__a, __b);
	.loc 4 21312 10 is_stmt 0 view .LVU219
	fmov	s0, w19	// k, k
	and	w4, w19, 255	// _83, k,
.LBE191:
.LBE190:
// mandelbrot_neon128.c:120:         fwrite(color, 6, 1, fp);
	.loc 1 120 9 view .LVU220
	mov	x3, x22	//, fp
	add	x0, sp, 160	// tmp278,,
.LBB194:
.LBB192:
// /usr/lib/gcc/aarch64-redhat-linux/13/include/arm_neon.h:21312:   return __builtin_aarch64_lshrv4si_uus (__a, __b);
	.loc 4 21312 10 view .LVU221
	ushr	v1.2s, v0.2s, 8	// _33, k,
.LBE192:
.LBE194:
.LBB195:
.LBB196:
// /usr/lib/gcc/aarch64-redhat-linux/13/include/arm_neon.h:1136:   return __a & __b;
	.loc 4 1136 14 view .LVU222
	dup	v0.4s, w4	// tmp242, _83
.LBE196:
.LBE195:
// mandelbrot_neon128.c:120:         fwrite(color, 6, 1, fp);
	.loc 1 120 9 view .LVU223
	mov	x2, 1	//,
	mov	x1, 6	//,
	add	x20, x20, 1	// ivtmp.31, ivtmp.31,
.LVL51:
.LBB197:
.LBB193:
// /usr/lib/gcc/aarch64-redhat-linux/13/include/arm_neon.h:21312:   return __builtin_aarch64_lshrv4si_uus (__a, __b);
	.loc 4 21312 10 view .LVU224
	dup	v1.4s, v1.s[0]	// tmp240, _33
.LVL52:
	.loc 4 21312 10 view .LVU225
.LBE193:
.LBE197:
// mandelbrot_neon128.c:115:         color[1] = vandq_u32(mmk,ZSS); //LSB
	.loc 1 115 18 discriminator 1 view .LVU226
	stp	q1, q0, [sp, 160]	// tmp240, tmp242, MEM[(uint32x4_t[6] *)_183][0]
	.loc 1 116 9 is_stmt 1 view .LVU227
// mandelbrot_neon128.c:117:         color[3] = vandq_u32(mmk,ZSS);
	.loc 1 117 18 is_stmt 0 discriminator 1 view .LVU228
	stp	q1, q0, [sp, 192]	// tmp240, tmp242, MEM[(uint32x4_t[6] *)_183][2]
	.loc 1 118 9 is_stmt 1 view .LVU229
// mandelbrot_neon128.c:119:         color[5] = vandq_u32(mmk,ZSS);
	.loc 1 119 18 is_stmt 0 discriminator 1 view .LVU230
	stp	q1, q0, [sp, 224]	// tmp240, tmp242, MEM[(uint32x4_t[6] *)_183][4]
	.loc 1 120 9 is_stmt 1 view .LVU231
	bl	fwrite		//
.LVL53:
	.loc 1 120 9 is_stmt 0 view .LVU232
	ldp	q7, q4, [sp, 112]	// y, Zx2, %sfp
	ldr	q5, [sp, 144]	// Zy2, %sfp
.LBE189:
	.loc 1 121 8 is_stmt 1 view .LVU233
.LBE198:
	.loc 1 76 48 discriminator 2 view .LVU234
.LVL54:
	.loc 1 76 48 is_stmt 0 discriminator 2 view .LVU235
	b	.L5		//
.LVL55:
	.p2align 2,,3
.L19:
	.loc 1 76 48 discriminator 2 view .LVU236
.LBE110:
	.loc 1 73 47 is_stmt 1 discriminator 2 view .LVU237
// mandelbrot_neon128.c:73:   for (j = 0; j < strtol(argv[6], NULL, 10); j++) { //iterate through y axis
	.loc 1 73 19 is_stmt 0 discriminator 1 view .LVU238
	ldr	x0, [x21, 48]	//, MEM[(char * *)argv_56(D) + 48B]
	add	x23, x23, 1	// ivtmp.34, ivtmp.34,
.LVL56:
	.loc 1 73 17 is_stmt 1 discriminator 1 view .LVU239
// mandelbrot_neon128.c:73:   for (j = 0; j < strtol(argv[6], NULL, 10); j++) { //iterate through y axis
	.loc 1 73 19 is_stmt 0 discriminator 1 view .LVU240
	mov	w2, 10	//,
	mov	x1, 0	//,
	stp	q4, q5, [sp, 112]	// Zx2, Zy2, %sfp
.LVL57:
	.loc 1 73 19 discriminator 1 view .LVU241
	bl	strtol		//
.LVL58:
// mandelbrot_neon128.c:73:   for (j = 0; j < strtol(argv[6], NULL, 10); j++) { //iterate through y axis
	.loc 1 73 17 discriminator 1 view .LVU242
	ldp	q4, q5, [sp, 112]	// Zx2, Zy2, %sfp
	cmp	x0, x23	// tmp269, ivtmp.34
	bgt	.L11		//,
.LVL59:
.L18:
	.loc 1 124 3 is_stmt 1 view .LVU243
	mov	x0, x22	//, fp
	bl	fclose		//
.LVL60:
	.loc 1 125 3 view .LVU244
// mandelbrot_neon128.c:126: }
	.loc 1 126 1 is_stmt 0 view .LVU245
	ldp	x19, x20, [sp, 16]	//,,
.LVL61:
	.loc 1 126 1 view .LVU246
	mov	w0, 0	//,
	ldp	x21, x22, [sp, 32]	//,,
.LVL62:
	.loc 1 126 1 view .LVU247
	ldr	x23, [sp, 48]	//,
.LVL63:
	.loc 1 126 1 view .LVU248
	ldr	d14, [sp, 56]	//,
	ldp	d8, d9, [sp, 64]	//,,
.LVL64:
	.loc 1 126 1 view .LVU249
	ldp	d10, d11, [sp, 80]	//,,
.LVL65:
	.loc 1 126 1 view .LVU250
	ldp	d12, d13, [sp, 96]	//,,
.LVL66:
	.loc 1 126 1 view .LVU251
	ldp	x29, x30, [sp], 256	//,,,
	.cfi_remember_state
	.cfi_restore 30
	.cfi_restore 29
	.cfi_restore 23
	.cfi_restore 21
	.cfi_restore 22
	.cfi_restore 19
	.cfi_restore 20
	.cfi_restore 78
	.cfi_restore 76
	.cfi_restore 77
	.cfi_restore 74
	.cfi_restore 75
	.cfi_restore 72
	.cfi_restore 73
	.cfi_def_cfa_offset 0
	ret	
.LVL67:
	.p2align 2,,3
.L12:
	.cfi_restore_state
.LBB200:
.LBB199:
// mandelbrot_neon128.c:89:       for (k = 1; vdups_laneq_u32(vandq_u32(vcltq_f32(mk,mmaxiter), vcltq_f32(vaddq_f32(Zx2,Zy2), mcl2)),3); k++) {
	.loc 1 89 14 view .LVU252
	mov	w19, 1	// k,
	b	.L6		//
.LVL68:
.L16:
	.loc 1 89 14 view .LVU253
.LBE199:
.LBE200:
	.loc 1 23 5 is_stmt 1 view .LVU254
	ldr	x1, [x1]	//, *argv_56(D)
.LVL69:
	.loc 1 23 5 is_stmt 0 view .LVU255
	adrp	x0, .LC0	// tmp181,
.LVL70:
	.loc 1 23 5 view .LVU256
	add	x0, x0, :lo12:.LC0	//, tmp181,
	bl	printf		//
.LVL71:
	.loc 1 24 5 is_stmt 1 view .LVU257
	ldr	x1, [x21]	//, *argv_56(D)
	adrp	x0, .LC1	// tmp183,
	add	x0, x0, :lo12:.LC1	//, tmp183,
	bl	printf		//
.LVL72:
	.loc 1 25 5 view .LVU258
	mov	w0, 1	//,
	bl	exit		//
.LVL73:
.L17:
	.loc 1 54 5 view .LVU259
	mov	x1, x23	//, filename
	adrp	x0, .LC5	// tmp205,
.LVL74:
	.loc 1 54 5 is_stmt 0 view .LVU260
	add	x0, x0, :lo12:.LC5	//, tmp205,
	bl	printf		//
.LVL75:
	.loc 1 55 5 is_stmt 1 view .LVU261
	mov	w0, 1	//,
	bl	exit		//
.LVL76:
	.cfi_endproc
.LFE3922:
	.size	main, .-main
	.text
.Letext0:
	.file 5 "/usr/include/bits/types.h"
	.file 6 "/usr/include/bits/stdint-uintn.h"
	.file 7 "/usr/lib/gcc/aarch64-redhat-linux/13/include/stddef.h"
	.file 8 "/usr/include/bits/types/struct_FILE.h"
	.file 9 "/usr/include/bits/types/FILE.h"
	.file 10 "/usr/include/stdio.h"
	.section	.debug_info,"",@progbits
.Ldebug_info0:
	.4byte	0xf83
	.2byte	0x5
	.byte	0x1
	.byte	0x8
	.4byte	.Ldebug_abbrev0
	.uleb128 0x20
	.4byte	.LASF102
	.byte	0x1d
	.4byte	.LASF0
	.4byte	.LASF1
	.4byte	.LLRL72
	.8byte	0
	.4byte	.Ldebug_line0
	.uleb128 0x4
	.byte	0x4
	.byte	0x4
	.4byte	.LASF2
	.uleb128 0x4
	.byte	0x8
	.byte	0x4
	.4byte	.LASF3
	.uleb128 0x21
	.byte	0x4
	.byte	0x5
	.string	"int"
	.uleb128 0x4
	.byte	0x8
	.byte	0x7
	.4byte	.LASF4
	.uleb128 0x4
	.byte	0x1
	.byte	0x6
	.4byte	.LASF5
	.uleb128 0x4
	.byte	0x2
	.byte	0x5
	.4byte	.LASF6
	.uleb128 0x11
	.4byte	0x38
	.uleb128 0x4
	.byte	0x8
	.byte	0x5
	.4byte	.LASF7
	.uleb128 0x4
	.byte	0x1
	.byte	0x8
	.4byte	.LASF8
	.uleb128 0x11
	.4byte	0x60
	.uleb128 0x4
	.byte	0x2
	.byte	0x7
	.4byte	.LASF9
	.uleb128 0x4
	.byte	0x4
	.byte	0x7
	.4byte	.LASF10
	.uleb128 0x19
	.4byte	.LASF15
	.4byte	0x73
	.4byte	0x89
	.uleb128 0x1a
	.byte	0
	.uleb128 0x4
	.byte	0x1
	.byte	0x7
	.4byte	.LASF11
	.uleb128 0x4
	.byte	0x2
	.byte	0x7
	.4byte	.LASF12
	.uleb128 0x4
	.byte	0x8
	.byte	0x7
	.4byte	.LASF13
	.uleb128 0x4
	.byte	0x2
	.byte	0x4
	.4byte	.LASF14
	.uleb128 0x19
	.4byte	.LASF16
	.4byte	0x2a
	.4byte	0xb4
	.uleb128 0x1a
	.byte	0
	.uleb128 0x4
	.byte	0x2
	.byte	0x4
	.4byte	.LASF17
	.uleb128 0xe
	.4byte	.LASF18
	.byte	0x5
	.byte	0x2a
	.byte	0x16
	.4byte	0x73
	.uleb128 0xe
	.4byte	.LASF19
	.byte	0x5
	.byte	0x98
	.byte	0x19
	.4byte	0x59
	.uleb128 0xe
	.4byte	.LASF20
	.byte	0x5
	.byte	0x99
	.byte	0x1b
	.4byte	0x59
	.uleb128 0x22
	.byte	0x8
	.uleb128 0xc
	.4byte	0xe6
	.uleb128 0x4
	.byte	0x1
	.byte	0x8
	.4byte	.LASF21
	.uleb128 0x11
	.4byte	0xe6
	.uleb128 0xe
	.4byte	.LASF22
	.byte	0x6
	.byte	0x1a
	.byte	0x14
	.4byte	0xbb
	.uleb128 0xe
	.4byte	.LASF23
	.byte	0x4
	.byte	0x3a
	.byte	0x17
	.4byte	0xa5
	.uleb128 0x11
	.4byte	0xfe
	.uleb128 0xe
	.4byte	.LASF24
	.byte	0x4
	.byte	0x42
	.byte	0x16
	.4byte	0x7a
	.uleb128 0x4
	.byte	0x10
	.byte	0x7
	.4byte	.LASF25
	.uleb128 0xe
	.4byte	.LASF26
	.byte	0x4
	.byte	0x4b
	.byte	0xf
	.4byte	0x2a
	.uleb128 0xe
	.4byte	.LASF27
	.byte	0x7
	.byte	0xd6
	.byte	0x17
	.4byte	0x3f
	.uleb128 0x23
	.4byte	.LASF103
	.byte	0xd8
	.byte	0x8
	.byte	0x31
	.byte	0x8
	.4byte	0x2a4
	.uleb128 0x2
	.4byte	.LASF28
	.byte	0x33
	.byte	0x7
	.4byte	0x38
	.byte	0
	.uleb128 0x2
	.4byte	.LASF29
	.byte	0x36
	.byte	0x9
	.4byte	0xe1
	.byte	0x8
	.uleb128 0x2
	.4byte	.LASF30
	.byte	0x37
	.byte	0x9
	.4byte	0xe1
	.byte	0x10
	.uleb128 0x2
	.4byte	.LASF31
	.byte	0x38
	.byte	0x9
	.4byte	0xe1
	.byte	0x18
	.uleb128 0x2
	.4byte	.LASF32
	.byte	0x39
	.byte	0x9
	.4byte	0xe1
	.byte	0x20
	.uleb128 0x2
	.4byte	.LASF33
	.byte	0x3a
	.byte	0x9
	.4byte	0xe1
	.byte	0x28
	.uleb128 0x2
	.4byte	.LASF34
	.byte	0x3b
	.byte	0x9
	.4byte	0xe1
	.byte	0x30
	.uleb128 0x2
	.4byte	.LASF35
	.byte	0x3c
	.byte	0x9
	.4byte	0xe1
	.byte	0x38
	.uleb128 0x2
	.4byte	.LASF36
	.byte	0x3d
	.byte	0x9
	.4byte	0xe1
	.byte	0x40
	.uleb128 0x2
	.4byte	.LASF37
	.byte	0x40
	.byte	0x9
	.4byte	0xe1
	.byte	0x48
	.uleb128 0x2
	.4byte	.LASF38
	.byte	0x41
	.byte	0x9
	.4byte	0xe1
	.byte	0x50
	.uleb128 0x2
	.4byte	.LASF39
	.byte	0x42
	.byte	0x9
	.4byte	0xe1
	.byte	0x58
	.uleb128 0x2
	.4byte	.LASF40
	.byte	0x44
	.byte	0x16
	.4byte	0x2bd
	.byte	0x60
	.uleb128 0x2
	.4byte	.LASF41
	.byte	0x46
	.byte	0x14
	.4byte	0x2c2
	.byte	0x68
	.uleb128 0x2
	.4byte	.LASF42
	.byte	0x48
	.byte	0x7
	.4byte	0x38
	.byte	0x70
	.uleb128 0x2
	.4byte	.LASF43
	.byte	0x49
	.byte	0x7
	.4byte	0x38
	.byte	0x74
	.uleb128 0x2
	.4byte	.LASF44
	.byte	0x4a
	.byte	0xb
	.4byte	0xc7
	.byte	0x78
	.uleb128 0x2
	.4byte	.LASF45
	.byte	0x4d
	.byte	0x12
	.4byte	0x6c
	.byte	0x80
	.uleb128 0x2
	.4byte	.LASF46
	.byte	0x4e
	.byte	0xf
	.4byte	0x46
	.byte	0x82
	.uleb128 0x2
	.4byte	.LASF47
	.byte	0x4f
	.byte	0x8
	.4byte	0x2c7
	.byte	0x83
	.uleb128 0x2
	.4byte	.LASF48
	.byte	0x51
	.byte	0xf
	.4byte	0x2d7
	.byte	0x88
	.uleb128 0x2
	.4byte	.LASF49
	.byte	0x59
	.byte	0xd
	.4byte	0xd3
	.byte	0x90
	.uleb128 0x2
	.4byte	.LASF50
	.byte	0x5b
	.byte	0x17
	.4byte	0x2e1
	.byte	0x98
	.uleb128 0x2
	.4byte	.LASF51
	.byte	0x5c
	.byte	0x19
	.4byte	0x2eb
	.byte	0xa0
	.uleb128 0x2
	.4byte	.LASF52
	.byte	0x5d
	.byte	0x14
	.4byte	0x2c2
	.byte	0xa8
	.uleb128 0x2
	.4byte	.LASF53
	.byte	0x5e
	.byte	0x9
	.4byte	0xdf
	.byte	0xb0
	.uleb128 0x2
	.4byte	.LASF54
	.byte	0x5f
	.byte	0xa
	.4byte	0x12e
	.byte	0xb8
	.uleb128 0x2
	.4byte	.LASF55
	.byte	0x60
	.byte	0x7
	.4byte	0x38
	.byte	0xc0
	.uleb128 0x2
	.4byte	.LASF56
	.byte	0x62
	.byte	0x8
	.4byte	0x2f0
	.byte	0xc4
	.byte	0
	.uleb128 0xe
	.4byte	.LASF57
	.byte	0x9
	.byte	0x7
	.byte	0x19
	.4byte	0x13a
	.uleb128 0x24
	.4byte	.LASF104
	.byte	0x8
	.byte	0x2b
	.byte	0xe
	.uleb128 0x17
	.4byte	.LASF58
	.uleb128 0xc
	.4byte	0x2b8
	.uleb128 0xc
	.4byte	0x13a
	.uleb128 0x12
	.4byte	0xe6
	.4byte	0x2d7
	.uleb128 0x13
	.4byte	0x3f
	.byte	0
	.byte	0
	.uleb128 0xc
	.4byte	0x2b0
	.uleb128 0x17
	.4byte	.LASF59
	.uleb128 0xc
	.4byte	0x2dc
	.uleb128 0x17
	.4byte	.LASF60
	.uleb128 0xc
	.4byte	0x2e6
	.uleb128 0x12
	.4byte	0xe6
	.4byte	0x300
	.uleb128 0x13
	.4byte	0x3f
	.byte	0x13
	.byte	0
	.uleb128 0xc
	.4byte	0xed
	.uleb128 0x14
	.4byte	0x300
	.uleb128 0xc
	.4byte	0x2a4
	.uleb128 0x14
	.4byte	0x30a
	.uleb128 0x4
	.byte	0x8
	.byte	0x5
	.4byte	.LASF61
	.uleb128 0x4
	.byte	0x8
	.byte	0x7
	.4byte	.LASF62
	.uleb128 0xc
	.4byte	0x32c
	.uleb128 0x14
	.4byte	0x322
	.uleb128 0x25
	.uleb128 0x4
	.byte	0x1
	.byte	0x2
	.4byte	.LASF63
	.uleb128 0x18
	.4byte	.LASF64
	.byte	0x3
	.byte	0x76
	.byte	0xf
	.4byte	0x31
	.4byte	0x34f
	.uleb128 0x6
	.4byte	0x305
	.uleb128 0x6
	.4byte	0x354
	.byte	0
	.uleb128 0xc
	.4byte	0xe1
	.uleb128 0x14
	.4byte	0x34f
	.uleb128 0x18
	.4byte	.LASF65
	.byte	0xa
	.byte	0xb7
	.byte	0xc
	.4byte	0x38
	.4byte	0x36f
	.uleb128 0x6
	.4byte	0x30a
	.byte	0
	.uleb128 0x15
	.4byte	.LASF66
	.2byte	0x2e3
	.byte	0xf
	.4byte	0x12e
	.4byte	0x394
	.uleb128 0x6
	.4byte	0x327
	.uleb128 0x6
	.4byte	0x12e
	.uleb128 0x6
	.4byte	0x12e
	.uleb128 0x6
	.4byte	0x30f
	.byte	0
	.uleb128 0x15
	.4byte	.LASF67
	.2byte	0x163
	.byte	0xc
	.4byte	0x38
	.4byte	0x3b0
	.uleb128 0x6
	.4byte	0x30f
	.uleb128 0x6
	.4byte	0x305
	.uleb128 0x1b
	.byte	0
	.uleb128 0x15
	.4byte	.LASF68
	.2byte	0x107
	.byte	0xe
	.4byte	0x30a
	.4byte	0x3cb
	.uleb128 0x6
	.4byte	0x305
	.uleb128 0x6
	.4byte	0x305
	.byte	0
	.uleb128 0x18
	.4byte	.LASF69
	.byte	0x3
	.byte	0xb1
	.byte	0x11
	.4byte	0x59
	.4byte	0x3eb
	.uleb128 0x6
	.4byte	0x305
	.uleb128 0x6
	.4byte	0x354
	.uleb128 0x6
	.4byte	0x38
	.byte	0
	.uleb128 0x26
	.4byte	.LASF70
	.byte	0x3
	.2byte	0x2f4
	.byte	0xd
	.4byte	0x3fe
	.uleb128 0x6
	.4byte	0x38
	.byte	0
	.uleb128 0x15
	.4byte	.LASF71
	.2byte	0x169
	.byte	0xc
	.4byte	0x38
	.4byte	0x415
	.uleb128 0x6
	.4byte	0x300
	.uleb128 0x1b
	.byte	0
	.uleb128 0x27
	.4byte	.LASF105
	.byte	0x1
	.byte	0x13
	.byte	0x5
	.4byte	0x38
	.8byte	.LFB3922
	.8byte	.LFE3922-.LFB3922
	.uleb128 0x1
	.byte	0x9c
	.4byte	0xd9b
	.uleb128 0x1c
	.4byte	.LASF72
	.byte	0xe
	.4byte	0x38
	.4byte	.LLST0
	.4byte	.LVUS0
	.uleb128 0x1c
	.4byte	.LASF73
	.byte	0x1a
	.4byte	0x34f
	.4byte	.LLST1
	.4byte	.LVUS1
	.uleb128 0x8
	.4byte	.LASF74
	.byte	0x21
	.byte	0x15
	.4byte	0x10a
	.4byte	.LLST2
	.4byte	.LVUS2
	.uleb128 0x8
	.4byte	.LASF75
	.byte	0x22
	.byte	0x15
	.4byte	0x10a
	.4byte	.LLST3
	.4byte	.LVUS3
	.uleb128 0x8
	.4byte	.LASF76
	.byte	0x23
	.byte	0x15
	.4byte	0x10a
	.4byte	.LLST4
	.4byte	.LVUS4
	.uleb128 0x8
	.4byte	.LASF77
	.byte	0x24
	.byte	0x15
	.4byte	0x10a
	.4byte	.LLST5
	.4byte	.LVUS5
	.uleb128 0x8
	.4byte	.LASF78
	.byte	0x29
	.byte	0xd
	.4byte	0x54
	.4byte	.LLST6
	.4byte	.LVUS6
	.uleb128 0x8
	.4byte	.LASF79
	.byte	0x2c
	.byte	0x15
	.4byte	0x10a
	.4byte	.LLST7
	.4byte	.LVUS7
	.uleb128 0x8
	.4byte	.LASF80
	.byte	0x2d
	.byte	0x15
	.4byte	0x10a
	.4byte	.LLST8
	.4byte	.LVUS8
	.uleb128 0x8
	.4byte	.LASF81
	.byte	0x31
	.byte	0xf
	.4byte	0x300
	.4byte	.LLST9
	.4byte	.LVUS9
	.uleb128 0x9
	.string	"fp"
	.byte	0x34
	.byte	0xa
	.4byte	0x30a
	.4byte	.LLST10
	.4byte	.LVUS10
	.uleb128 0x8
	.4byte	.LASF82
	.byte	0x39
	.byte	0x9
	.4byte	0xe1
	.4byte	.LLST11
	.4byte	.LVUS11
	.uleb128 0x8
	.4byte	.LASF83
	.byte	0x41
	.byte	0x15
	.4byte	0x10a
	.4byte	.LLST12
	.4byte	.LVUS12
	.uleb128 0x8
	.4byte	.LASF84
	.byte	0x42
	.byte	0x15
	.4byte	0x10a
	.4byte	.LLST13
	.4byte	.LVUS13
	.uleb128 0x9
	.string	"x"
	.byte	0x44
	.byte	0xf
	.4byte	0xfe
	.4byte	.LLST14
	.4byte	.LVUS14
	.uleb128 0x9
	.string	"y"
	.byte	0x44
	.byte	0x12
	.4byte	0xfe
	.4byte	.LLST15
	.4byte	.LVUS15
	.uleb128 0x9
	.string	"i"
	.byte	0x46
	.byte	0x7
	.4byte	0x38
	.4byte	.LLST16
	.4byte	.LVUS16
	.uleb128 0x9
	.string	"j"
	.byte	0x46
	.byte	0x9
	.4byte	0x38
	.4byte	.LLST17
	.4byte	.LVUS17
	.uleb128 0x9
	.string	"k"
	.byte	0x47
	.byte	0x7
	.4byte	0x38
	.4byte	.LLST18
	.4byte	.LVUS18
	.uleb128 0x1d
	.4byte	.LLRL28
	.4byte	0x9eb
	.uleb128 0x16
	.string	"mj"
	.byte	0x4a
	.byte	0x11
	.4byte	0xfe
	.uleb128 0x1d
	.4byte	.LLRL29
	.4byte	0x9d2
	.uleb128 0x16
	.string	"mi"
	.byte	0x4d
	.byte	0x15
	.4byte	0xfe
	.uleb128 0x9
	.string	"Zx"
	.byte	0x4f
	.byte	0x15
	.4byte	0xfe
	.4byte	.LLST30
	.4byte	.LVUS30
	.uleb128 0x9
	.string	"Zy"
	.byte	0x50
	.byte	0x15
	.4byte	0xfe
	.4byte	.LLST31
	.4byte	.LVUS31
	.uleb128 0x9
	.string	"Zx2"
	.byte	0x51
	.byte	0x15
	.4byte	0xfe
	.4byte	.LLST32
	.4byte	.LVUS32
	.uleb128 0x9
	.string	"Zy2"
	.byte	0x52
	.byte	0x15
	.4byte	0xfe
	.4byte	.LLST33
	.4byte	.LVUS33
	.uleb128 0x8
	.4byte	.LASF85
	.byte	0x54
	.byte	0x15
	.4byte	0xfe
	.4byte	.LLST34
	.4byte	.LVUS34
	.uleb128 0x9
	.string	"mk"
	.byte	0x55
	.byte	0x15
	.4byte	0xfe
	.4byte	.LLST35
	.4byte	.LVUS35
	.uleb128 0x16
	.string	"mcl"
	.byte	0x56
	.byte	0x15
	.4byte	0xfe
	.uleb128 0x8
	.4byte	.LASF86
	.byte	0x57
	.byte	0x15
	.4byte	0xfe
	.4byte	.LLST36
	.4byte	.LVUS36
	.uleb128 0x9
	.string	"two"
	.byte	0x58
	.byte	0x15
	.4byte	0xfe
	.4byte	.LLST37
	.4byte	.LVUS37
	.uleb128 0x1e
	.8byte	.LBB188
	.8byte	.LBE188-.LBB188
	.4byte	0x6a3
	.uleb128 0x1f
	.4byte	.LASF87
	.byte	0x63
	.byte	0x1d
	.4byte	0xd9b
	.uleb128 0x3
	.byte	0x91
	.sleb128 -96
	.uleb128 0xf
	.8byte	.LVL48
	.4byte	0x36f
	.uleb128 0x1
	.uleb128 0x1
	.byte	0x50
	.uleb128 0x3
	.byte	0x91
	.sleb128 -96
	.uleb128 0x1
	.uleb128 0x1
	.byte	0x51
	.uleb128 0x1
	.byte	0x36
	.uleb128 0x1
	.uleb128 0x1
	.byte	0x52
	.uleb128 0x1
	.byte	0x31
	.uleb128 0x1
	.uleb128 0x1
	.byte	0x53
	.uleb128 0x2
	.byte	0x86
	.sleb128 0
	.byte	0
	.byte	0
	.uleb128 0x1e
	.8byte	.LBB189
	.8byte	.LBE189-.LBB189
	.4byte	0x766
	.uleb128 0x1f
	.4byte	.LASF88
	.byte	0x6f
	.byte	0x14
	.4byte	0xdab
	.uleb128 0x3
	.byte	0x91
	.sleb128 -96
	.uleb128 0x9
	.string	"mmk"
	.byte	0x70
	.byte	0x14
	.4byte	0x10f
	.4byte	.LLST68
	.4byte	.LVUS68
	.uleb128 0x16
	.string	"ZSS"
	.byte	0x71
	.byte	0x14
	.4byte	0x10f
	.uleb128 0x7
	.4byte	0xdf9
	.8byte	.LBI190
	.2byte	.LVU217
	.4byte	.LLRL69
	.byte	0x72
	.byte	0x14
	.4byte	0x719
	.uleb128 0x3
	.4byte	0xe14
	.4byte	.LLST70
	.4byte	.LVUS70
	.uleb128 0x3
	.4byte	0xe08
	.4byte	.LLST71
	.4byte	.LVUS71
	.byte	0
	.uleb128 0x28
	.4byte	0xef9
	.8byte	.LBB195
	.8byte	.LBE195-.LBB195
	.byte	0x1
	.byte	0x73
	.byte	0x14
	.4byte	0x740
	.uleb128 0xa
	.4byte	0xf14
	.uleb128 0xa
	.4byte	0xf08
	.byte	0
	.uleb128 0xf
	.8byte	.LVL53
	.4byte	0x36f
	.uleb128 0x1
	.uleb128 0x1
	.byte	0x50
	.uleb128 0x3
	.byte	0x91
	.sleb128 -96
	.uleb128 0x1
	.uleb128 0x1
	.byte	0x51
	.uleb128 0x1
	.byte	0x36
	.uleb128 0x1
	.uleb128 0x1
	.byte	0x52
	.uleb128 0x1
	.byte	0x31
	.uleb128 0x1
	.uleb128 0x1
	.byte	0x53
	.uleb128 0x2
	.byte	0x86
	.sleb128 0
	.byte	0
	.byte	0
	.uleb128 0x7
	.4byte	0xf49
	.8byte	.LBI112
	.2byte	.LVU122
	.4byte	.LLRL38
	.byte	0x59
	.byte	0x13
	.4byte	0x79a
	.uleb128 0x3
	.4byte	0xf64
	.4byte	.LLST39
	.4byte	.LVUS39
	.uleb128 0x3
	.4byte	0xf58
	.4byte	.LLST40
	.4byte	.LVUS40
	.byte	0
	.uleb128 0x7
	.4byte	0xe65
	.8byte	.LBI117
	.2byte	.LVU111
	.4byte	.LLRL41
	.byte	0x55
	.byte	0x1a
	.4byte	0x7c1
	.uleb128 0x3
	.4byte	0xe74
	.4byte	.LLST42
	.4byte	.LVUS42
	.byte	0
	.uleb128 0x7
	.4byte	0xe65
	.8byte	.LBI120
	.2byte	.LVU107
	.4byte	.LLRL43
	.byte	0x54
	.byte	0x20
	.4byte	0x7e0
	.uleb128 0xa
	.4byte	0xe74
	.byte	0
	.uleb128 0x7
	.4byte	0xe81
	.8byte	.LBI123
	.2byte	.LVU125
	.4byte	.LLRL44
	.byte	0x59
	.byte	0x13
	.4byte	0x814
	.uleb128 0x3
	.4byte	0xe9c
	.4byte	.LLST45
	.4byte	.LVUS45
	.uleb128 0x3
	.4byte	0xe90
	.4byte	.LLST46
	.4byte	.LVUS46
	.byte	0
	.uleb128 0x7
	.4byte	0xe81
	.8byte	.LBI128
	.2byte	.LVU119
	.4byte	.LLRL47
	.byte	0x59
	.byte	0x13
	.4byte	0x848
	.uleb128 0x3
	.4byte	0xe9c
	.4byte	.LLST48
	.4byte	.LVUS48
	.uleb128 0x3
	.4byte	0xe90
	.4byte	.LLST49
	.4byte	.LVUS49
	.byte	0
	.uleb128 0x7
	.4byte	0xef9
	.8byte	.LBI132
	.2byte	.LVU128
	.4byte	.LLRL50
	.byte	0x59
	.byte	0x13
	.4byte	0x874
	.uleb128 0xa
	.4byte	0xf14
	.uleb128 0x3
	.4byte	0xf08
	.4byte	.LLST51
	.4byte	.LVUS51
	.byte	0
	.uleb128 0x7
	.4byte	0xe21
	.8byte	.LBI143
	.2byte	.LVU131
	.4byte	.LLRL52
	.byte	0x59
	.byte	0x13
	.4byte	0x8a0
	.uleb128 0x3
	.4byte	0xe3c
	.4byte	.LLST53
	.4byte	.LVUS53
	.uleb128 0xa
	.4byte	0xe30
	.byte	0
	.uleb128 0x7
	.4byte	0xf49
	.8byte	.LBI147
	.2byte	.LVU140
	.4byte	.LLRL54
	.byte	0x5a
	.byte	0x12
	.4byte	0x8cc
	.uleb128 0x3
	.4byte	0xf64
	.4byte	.LLST55
	.4byte	.LVUS55
	.uleb128 0xa
	.4byte	0xf58
	.byte	0
	.uleb128 0x7
	.4byte	0xed1
	.8byte	.LBI152
	.2byte	.LVU151
	.4byte	.LLRL56
	.byte	0x5b
	.byte	0x12
	.4byte	0x8f0
	.uleb128 0xa
	.4byte	0xeec
	.uleb128 0xa
	.4byte	0xee0
	.byte	0
	.uleb128 0x7
	.4byte	0xf49
	.8byte	.LBI156
	.2byte	.LVU154
	.4byte	.LLRL57
	.byte	0x5b
	.byte	0x12
	.4byte	0x91c
	.uleb128 0x3
	.4byte	0xf64
	.4byte	.LLST58
	.4byte	.LVUS58
	.uleb128 0xa
	.4byte	0xf58
	.byte	0
	.uleb128 0x7
	.4byte	0xf21
	.8byte	.LBI160
	.2byte	.LVU158
	.4byte	.LLRL59
	.byte	0x5c
	.byte	0x13
	.4byte	0x940
	.uleb128 0xa
	.4byte	0xf3c
	.uleb128 0xa
	.4byte	0xf30
	.byte	0
	.uleb128 0x7
	.4byte	0xf21
	.8byte	.LBI163
	.2byte	.LVU162
	.4byte	.LLRL60
	.byte	0x5d
	.byte	0x13
	.4byte	0x974
	.uleb128 0x3
	.4byte	0xf3c
	.4byte	.LLST61
	.4byte	.LVUS61
	.uleb128 0x3
	.4byte	0xf30
	.4byte	.LLST61
	.4byte	.LVUS61
	.byte	0
	.uleb128 0x7
	.4byte	0xea9
	.8byte	.LBI180
	.2byte	.LVU192
	.4byte	.LLRL63
	.byte	0x60
	.byte	0xb
	.4byte	0x9a8
	.uleb128 0x3
	.4byte	0xec4
	.4byte	.LLST64
	.4byte	.LVUS64
	.uleb128 0x3
	.4byte	0xeb8
	.4byte	.LLST65
	.4byte	.LVUS65
	.byte	0
	.uleb128 0x29
	.4byte	0xe21
	.8byte	.LBI183
	.2byte	.LVU195
	.4byte	.LLRL66
	.byte	0x1
	.byte	0x60
	.byte	0xb
	.uleb128 0x3
	.4byte	0xe3c
	.4byte	.LLST67
	.4byte	.LVUS67
	.uleb128 0xa
	.4byte	0xe30
	.byte	0
	.byte	0
	.uleb128 0xf
	.8byte	.LVL36
	.4byte	0x3cb
	.uleb128 0x1
	.uleb128 0x1
	.byte	0x51
	.uleb128 0x1
	.byte	0x30
	.uleb128 0x1
	.uleb128 0x1
	.byte	0x52
	.uleb128 0x1
	.byte	0x3a
	.byte	0
	.byte	0
	.uleb128 0x10
	.4byte	0xdbb
	.8byte	.LBI94
	.2byte	.LVU5
	.8byte	.LBB94
	.8byte	.LBE94-.LBB94
	.byte	0x21
	.byte	0x28
	.4byte	0xa31
	.uleb128 0x3
	.4byte	0xdcc
	.4byte	.LLST19
	.4byte	.LVUS19
	.uleb128 0xf
	.8byte	.LVL4
	.4byte	0x334
	.uleb128 0x1
	.uleb128 0x1
	.byte	0x51
	.uleb128 0x1
	.byte	0x30
	.byte	0
	.byte	0
	.uleb128 0x10
	.4byte	0xdbb
	.8byte	.LBI96
	.2byte	.LVU13
	.8byte	.LBB96
	.8byte	.LBE96-.LBB96
	.byte	0x22
	.byte	0x28
	.4byte	0xa77
	.uleb128 0x3
	.4byte	0xdcc
	.4byte	.LLST20
	.4byte	.LVUS20
	.uleb128 0xf
	.8byte	.LVL6
	.4byte	0x334
	.uleb128 0x1
	.uleb128 0x1
	.byte	0x51
	.uleb128 0x1
	.byte	0x30
	.byte	0
	.byte	0
	.uleb128 0x10
	.4byte	0xdbb
	.8byte	.LBI98
	.2byte	.LVU19
	.8byte	.LBB98
	.8byte	.LBE98-.LBB98
	.byte	0x23
	.byte	0x28
	.4byte	0xabd
	.uleb128 0x3
	.4byte	0xdcc
	.4byte	.LLST21
	.4byte	.LVUS21
	.uleb128 0xf
	.8byte	.LVL8
	.4byte	0x334
	.uleb128 0x1
	.uleb128 0x1
	.byte	0x51
	.uleb128 0x1
	.byte	0x30
	.byte	0
	.byte	0
	.uleb128 0x10
	.4byte	0xdbb
	.8byte	.LBI100
	.2byte	.LVU25
	.8byte	.LBB100
	.8byte	.LBE100-.LBB100
	.byte	0x24
	.byte	0x28
	.4byte	0xb03
	.uleb128 0x3
	.4byte	0xdcc
	.4byte	.LLST22
	.4byte	.LVUS22
	.uleb128 0xf
	.8byte	.LVL10
	.4byte	0x334
	.uleb128 0x1
	.uleb128 0x1
	.byte	0x51
	.uleb128 0x1
	.byte	0x30
	.byte	0
	.byte	0
	.uleb128 0x10
	.4byte	0xdd9
	.8byte	.LBI102
	.2byte	.LVU33
	.8byte	.LBB102
	.8byte	.LBE102-.LBB102
	.byte	0x29
	.byte	0x18
	.4byte	0xb4e
	.uleb128 0x3
	.4byte	0xdeb
	.4byte	.LLST23
	.4byte	.LVUS23
	.uleb128 0xf
	.8byte	.LVL13
	.4byte	0x3cb
	.uleb128 0x1
	.uleb128 0x1
	.byte	0x51
	.uleb128 0x1
	.byte	0x30
	.uleb128 0x1
	.uleb128 0x1
	.byte	0x52
	.uleb128 0x1
	.byte	0x3a
	.byte	0
	.byte	0
	.uleb128 0x10
	.4byte	0xed1
	.8byte	.LBI104
	.2byte	.LVU57
	.8byte	.LBB104
	.8byte	.LBE104-.LBB104
	.byte	0x41
	.byte	0x1c
	.4byte	0xb8e
	.uleb128 0x3
	.4byte	0xeec
	.4byte	.LLST24
	.4byte	.LVUS24
	.uleb128 0x3
	.4byte	0xee0
	.4byte	.LLST25
	.4byte	.LVUS25
	.byte	0
	.uleb128 0x7
	.4byte	0xed1
	.8byte	.LBI106
	.2byte	.LVU67
	.4byte	.LLRL26
	.byte	0x42
	.byte	0x1c
	.4byte	0xbba
	.uleb128 0x3
	.4byte	0xeec
	.4byte	.LLST27
	.4byte	.LVUS27
	.uleb128 0xa
	.4byte	0xee0
	.byte	0
	.uleb128 0xb
	.8byte	.LVL12
	.4byte	0x3fe
	.4byte	0xc01
	.uleb128 0x1
	.uleb128 0x1
	.byte	0x50
	.uleb128 0x9
	.byte	0x3
	.8byte	.LC2
	.uleb128 0x1
	.uleb128 0x2
	.byte	0x90
	.uleb128 0x40
	.uleb128 0x5
	.byte	0xa5
	.uleb128 0x49
	.uleb128 0x2a
	.byte	0xa8
	.uleb128 0x31
	.uleb128 0x1
	.uleb128 0x2
	.byte	0x90
	.uleb128 0x41
	.uleb128 0x5
	.byte	0xa5
	.uleb128 0x48
	.uleb128 0x2a
	.byte	0xa8
	.uleb128 0x31
	.uleb128 0x1
	.uleb128 0x2
	.byte	0x90
	.uleb128 0x42
	.uleb128 0x5
	.byte	0xa5
	.uleb128 0x4c
	.uleb128 0x2a
	.byte	0xa8
	.uleb128 0x31
	.uleb128 0x1
	.uleb128 0x2
	.byte	0x90
	.uleb128 0x43
	.uleb128 0x5
	.byte	0xa5
	.uleb128 0x4b
	.uleb128 0x2a
	.byte	0xa8
	.uleb128 0x31
	.byte	0
	.uleb128 0xb
	.8byte	.LVL16
	.4byte	0x3cb
	.4byte	0xc1d
	.uleb128 0x1
	.uleb128 0x1
	.byte	0x51
	.uleb128 0x1
	.byte	0x30
	.uleb128 0x1
	.uleb128 0x1
	.byte	0x52
	.uleb128 0x1
	.byte	0x3a
	.byte	0
	.uleb128 0xb
	.8byte	.LVL18
	.4byte	0x3cb
	.4byte	0xc39
	.uleb128 0x1
	.uleb128 0x1
	.byte	0x51
	.uleb128 0x1
	.byte	0x30
	.uleb128 0x1
	.uleb128 0x1
	.byte	0x52
	.uleb128 0x1
	.byte	0x3a
	.byte	0
	.uleb128 0xb
	.8byte	.LVL20
	.4byte	0x3fe
	.4byte	0xc6c
	.uleb128 0x1
	.uleb128 0x1
	.byte	0x50
	.uleb128 0x9
	.byte	0x3
	.8byte	.LC3
	.uleb128 0x1
	.uleb128 0x2
	.byte	0x90
	.uleb128 0x40
	.uleb128 0x5
	.byte	0xa5
	.uleb128 0x4e
	.uleb128 0x2a
	.byte	0xa8
	.uleb128 0x31
	.uleb128 0x1
	.uleb128 0x2
	.byte	0x90
	.uleb128 0x41
	.uleb128 0x5
	.byte	0xa5
	.uleb128 0x4d
	.uleb128 0x2a
	.byte	0xa8
	.uleb128 0x31
	.byte	0
	.uleb128 0xb
	.8byte	.LVL22
	.4byte	0x3b0
	.4byte	0xc91
	.uleb128 0x1
	.uleb128 0x1
	.byte	0x50
	.uleb128 0x2
	.byte	0x87
	.sleb128 0
	.uleb128 0x1
	.uleb128 0x1
	.byte	0x51
	.uleb128 0x9
	.byte	0x3
	.8byte	.LC4
	.byte	0
	.uleb128 0xb
	.8byte	.LVL25
	.4byte	0x394
	.4byte	0xcbc
	.uleb128 0x1
	.uleb128 0x1
	.byte	0x50
	.uleb128 0x2
	.byte	0x86
	.sleb128 0
	.uleb128 0x1
	.uleb128 0x1
	.byte	0x51
	.uleb128 0x9
	.byte	0x3
	.8byte	.LC6
	.uleb128 0x1
	.uleb128 0x1
	.byte	0x52
	.uleb128 0x2
	.byte	0x84
	.sleb128 0
	.byte	0
	.uleb128 0xb
	.8byte	.LVL31
	.4byte	0x3cb
	.4byte	0xcd9
	.uleb128 0x1
	.uleb128 0x1
	.byte	0x51
	.uleb128 0x2
	.byte	0x87
	.sleb128 0
	.uleb128 0x1
	.uleb128 0x1
	.byte	0x52
	.uleb128 0x1
	.byte	0x3a
	.byte	0
	.uleb128 0xb
	.8byte	.LVL58
	.4byte	0x3cb
	.4byte	0xcf5
	.uleb128 0x1
	.uleb128 0x1
	.byte	0x51
	.uleb128 0x1
	.byte	0x30
	.uleb128 0x1
	.uleb128 0x1
	.byte	0x52
	.uleb128 0x1
	.byte	0x3a
	.byte	0
	.uleb128 0xb
	.8byte	.LVL60
	.4byte	0x359
	.4byte	0xd0d
	.uleb128 0x1
	.uleb128 0x1
	.byte	0x50
	.uleb128 0x2
	.byte	0x86
	.sleb128 0
	.byte	0
	.uleb128 0xb
	.8byte	.LVL71
	.4byte	0x3fe
	.4byte	0xd2c
	.uleb128 0x1
	.uleb128 0x1
	.byte	0x50
	.uleb128 0x9
	.byte	0x3
	.8byte	.LC0
	.byte	0
	.uleb128 0xb
	.8byte	.LVL72
	.4byte	0x3fe
	.4byte	0xd4b
	.uleb128 0x1
	.uleb128 0x1
	.byte	0x50
	.uleb128 0x9
	.byte	0x3
	.8byte	.LC1
	.byte	0
	.uleb128 0xb
	.8byte	.LVL73
	.4byte	0x3eb
	.4byte	0xd62
	.uleb128 0x1
	.uleb128 0x1
	.byte	0x50
	.uleb128 0x1
	.byte	0x31
	.byte	0
	.uleb128 0xb
	.8byte	.LVL75
	.4byte	0x3fe
	.4byte	0xd87
	.uleb128 0x1
	.uleb128 0x1
	.byte	0x50
	.uleb128 0x9
	.byte	0x3
	.8byte	.LC5
	.uleb128 0x1
	.uleb128 0x1
	.byte	0x51
	.uleb128 0x2
	.byte	0x87
	.sleb128 0
	.byte	0
	.uleb128 0xf
	.8byte	.LVL76
	.4byte	0x3eb
	.uleb128 0x1
	.uleb128 0x1
	.byte	0x50
	.uleb128 0x1
	.byte	0x31
	.byte	0
	.byte	0
	.uleb128 0x12
	.4byte	0x67
	.4byte	0xdab
	.uleb128 0x13
	.4byte	0x3f
	.byte	0x5
	.byte	0
	.uleb128 0x12
	.4byte	0x10f
	.4byte	0xdbb
	.uleb128 0x13
	.4byte	0x3f
	.byte	0x5
	.byte	0
	.uleb128 0x2a
	.4byte	.LASF89
	.byte	0x2
	.byte	0x19
	.byte	0x1
	.4byte	0x31
	.byte	0x3
	.4byte	0xdd9
	.uleb128 0x2b
	.4byte	.LASF91
	.byte	0x2
	.byte	0x19
	.byte	0x1
	.4byte	0x300
	.byte	0
	.uleb128 0x2c
	.4byte	.LASF90
	.byte	0x3
	.2byte	0x1e1
	.byte	0x1
	.4byte	0x38
	.byte	0x3
	.4byte	0xdf9
	.uleb128 0x2d
	.4byte	.LASF91
	.byte	0x3
	.2byte	0x1e1
	.byte	0x1
	.4byte	0x300
	.byte	0
	.uleb128 0xd
	.4byte	.LASF92
	.2byte	0x533e
	.4byte	0x10f
	.4byte	0xe21
	.uleb128 0x5
	.string	"__a"
	.2byte	0x533e
	.byte	0x19
	.4byte	0x10f
	.uleb128 0x5
	.string	"__b"
	.2byte	0x533e
	.byte	0x28
	.4byte	0x54
	.byte	0
	.uleb128 0xd
	.4byte	.LASF93
	.2byte	0x2cc9
	.4byte	0xf2
	.4byte	0xe49
	.uleb128 0x5
	.string	"__a"
	.2byte	0x2cc9
	.byte	0x1d
	.4byte	0x10f
	.uleb128 0x5
	.string	"__b"
	.2byte	0x2cc9
	.byte	0x2c
	.4byte	0x54
	.byte	0
	.uleb128 0xd
	.4byte	.LASF94
	.2byte	0x2a83
	.4byte	0x10f
	.4byte	0xe65
	.uleb128 0x5
	.string	"__a"
	.2byte	0x2a83
	.byte	0x17
	.4byte	0xf2
	.byte	0
	.uleb128 0xd
	.4byte	.LASF95
	.2byte	0x2a33
	.4byte	0xfe
	.4byte	0xe81
	.uleb128 0x5
	.string	"__a"
	.2byte	0x2a33
	.byte	0x18
	.4byte	0x122
	.byte	0
	.uleb128 0xd
	.4byte	.LASF96
	.2byte	0x2350
	.4byte	0x10f
	.4byte	0xea9
	.uleb128 0x5
	.string	"__a"
	.2byte	0x2350
	.byte	0x18
	.4byte	0xfe
	.uleb128 0x5
	.string	"__b"
	.2byte	0x2350
	.byte	0x29
	.4byte	0xfe
	.byte	0
	.uleb128 0xd
	.4byte	.LASF97
	.2byte	0x2005
	.4byte	0x10f
	.4byte	0xed1
	.uleb128 0x5
	.string	"__a"
	.2byte	0x2005
	.byte	0x18
	.4byte	0xfe
	.uleb128 0x5
	.string	"__b"
	.2byte	0x2005
	.byte	0x29
	.4byte	0xfe
	.byte	0
	.uleb128 0xd
	.4byte	.LASF98
	.2byte	0x69e
	.4byte	0xfe
	.4byte	0xef9
	.uleb128 0x5
	.string	"__a"
	.2byte	0x69e
	.byte	0x18
	.4byte	0xfe
	.uleb128 0x5
	.string	"__b"
	.2byte	0x69e
	.byte	0x29
	.4byte	0xfe
	.byte	0
	.uleb128 0xd
	.4byte	.LASF99
	.2byte	0x46e
	.4byte	0x10f
	.4byte	0xf21
	.uleb128 0x5
	.string	"__a"
	.2byte	0x46e
	.byte	0x17
	.4byte	0x10f
	.uleb128 0x5
	.string	"__b"
	.2byte	0x46e
	.byte	0x27
	.4byte	0x10f
	.byte	0
	.uleb128 0xd
	.4byte	.LASF100
	.2byte	0x3e2
	.4byte	0xfe
	.4byte	0xf49
	.uleb128 0x5
	.string	"__a"
	.2byte	0x3e2
	.byte	0x18
	.4byte	0xfe
	.uleb128 0x5
	.string	"__b"
	.2byte	0x3e2
	.byte	0x29
	.4byte	0xfe
	.byte	0
	.uleb128 0xd
	.4byte	.LASF101
	.2byte	0x150
	.4byte	0xfe
	.4byte	0xf71
	.uleb128 0x5
	.string	"__a"
	.2byte	0x150
	.byte	0x18
	.4byte	0xfe
	.uleb128 0x5
	.string	"__b"
	.2byte	0x150
	.byte	0x29
	.4byte	0xfe
	.byte	0
	.uleb128 0x2e
	.uleb128 0x13
	.byte	0x9e
	.uleb128 0x11
	.byte	0x23
	.byte	0x20
	.byte	0x4d
	.byte	0x61
	.byte	0x6e
	.byte	0x64
	.byte	0x65
	.byte	0x6c
	.byte	0x62
	.byte	0x72
	.byte	0x6f
	.byte	0x74
	.byte	0x20
	.byte	0x73
	.byte	0x65
	.byte	0x74
	.byte	0
	.byte	0
	.section	.debug_abbrev,"",@progbits
.Ldebug_abbrev0:
	.uleb128 0x1
	.uleb128 0x49
	.byte	0
	.uleb128 0x2
	.uleb128 0x18
	.uleb128 0x7e
	.uleb128 0x18
	.byte	0
	.byte	0
	.uleb128 0x2
	.uleb128 0xd
	.byte	0
	.uleb128 0x3
	.uleb128 0xe
	.uleb128 0x3a
	.uleb128 0x21
	.sleb128 8
	.uleb128 0x3b
	.uleb128 0xb
	.uleb128 0x39
	.uleb128 0xb
	.uleb128 0x49
	.uleb128 0x13
	.uleb128 0x38
	.uleb128 0xb
	.byte	0
	.byte	0
	.uleb128 0x3
	.uleb128 0x5
	.byte	0
	.uleb128 0x31
	.uleb128 0x13
	.uleb128 0x2
	.uleb128 0x17
	.uleb128 0x2137
	.uleb128 0x17
	.byte	0
	.byte	0
	.uleb128 0x4
	.uleb128 0x24
	.byte	0
	.uleb128 0xb
	.uleb128 0xb
	.uleb128 0x3e
	.uleb128 0xb
	.uleb128 0x3
	.uleb128 0xe
	.byte	0
	.byte	0
	.uleb128 0x5
	.uleb128 0x5
	.byte	0
	.uleb128 0x3
	.uleb128 0x8
	.uleb128 0x3a
	.uleb128 0x21
	.sleb128 4
	.uleb128 0x3b
	.uleb128 0x5
	.uleb128 0x39
	.uleb128 0xb
	.uleb128 0x49
	.uleb128 0x13
	.byte	0
	.byte	0
	.uleb128 0x6
	.uleb128 0x5
	.byte	0
	.uleb128 0x49
	.uleb128 0x13
	.byte	0
	.byte	0
	.uleb128 0x7
	.uleb128 0x1d
	.byte	0x1
	.uleb128 0x31
	.uleb128 0x13
	.uleb128 0x52
	.uleb128 0x1
	.uleb128 0x2138
	.uleb128 0x5
	.uleb128 0x55
	.uleb128 0x17
	.uleb128 0x58
	.uleb128 0x21
	.sleb128 1
	.uleb128 0x59
	.uleb128 0xb
	.uleb128 0x57
	.uleb128 0xb
	.uleb128 0x1
	.uleb128 0x13
	.byte	0
	.byte	0
	.uleb128 0x8
	.uleb128 0x34
	.byte	0
	.uleb128 0x3
	.uleb128 0xe
	.uleb128 0x3a
	.uleb128 0x21
	.sleb128 1
	.uleb128 0x3b
	.uleb128 0xb
	.uleb128 0x39
	.uleb128 0xb
	.uleb128 0x49
	.uleb128 0x13
	.uleb128 0x2
	.uleb128 0x17
	.uleb128 0x2137
	.uleb128 0x17
	.byte	0
	.byte	0
	.uleb128 0x9
	.uleb128 0x34
	.byte	0
	.uleb128 0x3
	.uleb128 0x8
	.uleb128 0x3a
	.uleb128 0x21
	.sleb128 1
	.uleb128 0x3b
	.uleb128 0xb
	.uleb128 0x39
	.uleb128 0xb
	.uleb128 0x49
	.uleb128 0x13
	.uleb128 0x2
	.uleb128 0x17
	.uleb128 0x2137
	.uleb128 0x17
	.byte	0
	.byte	0
	.uleb128 0xa
	.uleb128 0x5
	.byte	0
	.uleb128 0x31
	.uleb128 0x13
	.byte	0
	.byte	0
	.uleb128 0xb
	.uleb128 0x48
	.byte	0x1
	.uleb128 0x7d
	.uleb128 0x1
	.uleb128 0x7f
	.uleb128 0x13
	.uleb128 0x1
	.uleb128 0x13
	.byte	0
	.byte	0
	.uleb128 0xc
	.uleb128 0xf
	.byte	0
	.uleb128 0xb
	.uleb128 0x21
	.sleb128 8
	.uleb128 0x49
	.uleb128 0x13
	.byte	0
	.byte	0
	.uleb128 0xd
	.uleb128 0x2e
	.byte	0x1
	.uleb128 0x3f
	.uleb128 0x19
	.uleb128 0x3
	.uleb128 0xe
	.uleb128 0x3a
	.uleb128 0x21
	.sleb128 4
	.uleb128 0x3b
	.uleb128 0x5
	.uleb128 0x39
	.uleb128 0x21
	.sleb128 1
	.uleb128 0x27
	.uleb128 0x19
	.uleb128 0x49
	.uleb128 0x13
	.uleb128 0x20
	.uleb128 0x21
	.sleb128 3
	.uleb128 0x34
	.uleb128 0x19
	.uleb128 0x1
	.uleb128 0x13
	.byte	0
	.byte	0
	.uleb128 0xe
	.uleb128 0x16
	.byte	0
	.uleb128 0x3
	.uleb128 0xe
	.uleb128 0x3a
	.uleb128 0xb
	.uleb128 0x3b
	.uleb128 0xb
	.uleb128 0x39
	.uleb128 0xb
	.uleb128 0x49
	.uleb128 0x13
	.byte	0
	.byte	0
	.uleb128 0xf
	.uleb128 0x48
	.byte	0x1
	.uleb128 0x7d
	.uleb128 0x1
	.uleb128 0x7f
	.uleb128 0x13
	.byte	0
	.byte	0
	.uleb128 0x10
	.uleb128 0x1d
	.byte	0x1
	.uleb128 0x31
	.uleb128 0x13
	.uleb128 0x52
	.uleb128 0x1
	.uleb128 0x2138
	.uleb128 0x5
	.uleb128 0x11
	.uleb128 0x1
	.uleb128 0x12
	.uleb128 0x7
	.uleb128 0x58
	.uleb128 0x21
	.sleb128 1
	.uleb128 0x59
	.uleb128 0xb
	.uleb128 0x57
	.uleb128 0xb
	.uleb128 0x1
	.uleb128 0x13
	.byte	0
	.byte	0
	.uleb128 0x11
	.uleb128 0x26
	.byte	0
	.uleb128 0x49
	.uleb128 0x13
	.byte	0
	.byte	0
	.uleb128 0x12
	.uleb128 0x1
	.byte	0x1
	.uleb128 0x49
	.uleb128 0x13
	.uleb128 0x1
	.uleb128 0x13
	.byte	0
	.byte	0
	.uleb128 0x13
	.uleb128 0x21
	.byte	0
	.uleb128 0x49
	.uleb128 0x13
	.uleb128 0x2f
	.uleb128 0xb
	.byte	0
	.byte	0
	.uleb128 0x14
	.uleb128 0x37
	.byte	0
	.uleb128 0x49
	.uleb128 0x13
	.byte	0
	.byte	0
	.uleb128 0x15
	.uleb128 0x2e
	.byte	0x1
	.uleb128 0x3f
	.uleb128 0x19
	.uleb128 0x3
	.uleb128 0xe
	.uleb128 0x3a
	.uleb128 0x21
	.sleb128 10
	.uleb128 0x3b
	.uleb128 0x5
	.uleb128 0x39
	.uleb128 0xb
	.uleb128 0x27
	.uleb128 0x19
	.uleb128 0x49
	.uleb128 0x13
	.uleb128 0x3c
	.uleb128 0x19
	.uleb128 0x1
	.uleb128 0x13
	.byte	0
	.byte	0
	.uleb128 0x16
	.uleb128 0x34
	.byte	0
	.uleb128 0x3
	.uleb128 0x8
	.uleb128 0x3a
	.uleb128 0x21
	.sleb128 1
	.uleb128 0x3b
	.uleb128 0xb
	.uleb128 0x39
	.uleb128 0xb
	.uleb128 0x49
	.uleb128 0x13
	.byte	0
	.byte	0
	.uleb128 0x17
	.uleb128 0x13
	.byte	0
	.uleb128 0x3
	.uleb128 0xe
	.uleb128 0x3c
	.uleb128 0x19
	.byte	0
	.byte	0
	.uleb128 0x18
	.uleb128 0x2e
	.byte	0x1
	.uleb128 0x3f
	.uleb128 0x19
	.uleb128 0x3
	.uleb128 0xe
	.uleb128 0x3a
	.uleb128 0xb
	.uleb128 0x3b
	.uleb128 0xb
	.uleb128 0x39
	.uleb128 0xb
	.uleb128 0x27
	.uleb128 0x19
	.uleb128 0x49
	.uleb128 0x13
	.uleb128 0x3c
	.uleb128 0x19
	.uleb128 0x1
	.uleb128 0x13
	.byte	0
	.byte	0
	.uleb128 0x19
	.uleb128 0x1
	.byte	0x1
	.uleb128 0x3
	.uleb128 0xe
	.uleb128 0x2107
	.uleb128 0x19
	.uleb128 0x49
	.uleb128 0x13
	.uleb128 0x1
	.uleb128 0x13
	.byte	0
	.byte	0
	.uleb128 0x1a
	.uleb128 0x21
	.byte	0
	.uleb128 0x2f
	.uleb128 0x21
	.sleb128 3
	.byte	0
	.byte	0
	.uleb128 0x1b
	.uleb128 0x18
	.byte	0
	.byte	0
	.byte	0
	.uleb128 0x1c
	.uleb128 0x5
	.byte	0
	.uleb128 0x3
	.uleb128 0xe
	.uleb128 0x3a
	.uleb128 0x21
	.sleb128 1
	.uleb128 0x3b
	.uleb128 0x21
	.sleb128 19
	.uleb128 0x39
	.uleb128 0xb
	.uleb128 0x49
	.uleb128 0x13
	.uleb128 0x2
	.uleb128 0x17
	.uleb128 0x2137
	.uleb128 0x17
	.byte	0
	.byte	0
	.uleb128 0x1d
	.uleb128 0xb
	.byte	0x1
	.uleb128 0x55
	.uleb128 0x17
	.uleb128 0x1
	.uleb128 0x13
	.byte	0
	.byte	0
	.uleb128 0x1e
	.uleb128 0xb
	.byte	0x1
	.uleb128 0x11
	.uleb128 0x1
	.uleb128 0x12
	.uleb128 0x7
	.uleb128 0x1
	.uleb128 0x13
	.byte	0
	.byte	0
	.uleb128 0x1f
	.uleb128 0x34
	.byte	0
	.uleb128 0x3
	.uleb128 0xe
	.uleb128 0x3a
	.uleb128 0x21
	.sleb128 1
	.uleb128 0x3b
	.uleb128 0xb
	.uleb128 0x39
	.uleb128 0xb
	.uleb128 0x49
	.uleb128 0x13
	.uleb128 0x2
	.uleb128 0x18
	.byte	0
	.byte	0
	.uleb128 0x20
	.uleb128 0x11
	.byte	0x1
	.uleb128 0x25
	.uleb128 0xe
	.uleb128 0x13
	.uleb128 0xb
	.uleb128 0x3
	.uleb128 0x1f
	.uleb128 0x1b
	.uleb128 0x1f
	.uleb128 0x55
	.uleb128 0x17
	.uleb128 0x11
	.uleb128 0x1
	.uleb128 0x10
	.uleb128 0x17
	.byte	0
	.byte	0
	.uleb128 0x21
	.uleb128 0x24
	.byte	0
	.uleb128 0xb
	.uleb128 0xb
	.uleb128 0x3e
	.uleb128 0xb
	.uleb128 0x3
	.uleb128 0x8
	.byte	0
	.byte	0
	.uleb128 0x22
	.uleb128 0xf
	.byte	0
	.uleb128 0xb
	.uleb128 0xb
	.byte	0
	.byte	0
	.uleb128 0x23
	.uleb128 0x13
	.byte	0x1
	.uleb128 0x3
	.uleb128 0xe
	.uleb128 0xb
	.uleb128 0xb
	.uleb128 0x3a
	.uleb128 0xb
	.uleb128 0x3b
	.uleb128 0xb
	.uleb128 0x39
	.uleb128 0xb
	.uleb128 0x1
	.uleb128 0x13
	.byte	0
	.byte	0
	.uleb128 0x24
	.uleb128 0x16
	.byte	0
	.uleb128 0x3
	.uleb128 0xe
	.uleb128 0x3a
	.uleb128 0xb
	.uleb128 0x3b
	.uleb128 0xb
	.uleb128 0x39
	.uleb128 0xb
	.byte	0
	.byte	0
	.uleb128 0x25
	.uleb128 0x26
	.byte	0
	.byte	0
	.byte	0
	.uleb128 0x26
	.uleb128 0x2e
	.byte	0x1
	.uleb128 0x3f
	.uleb128 0x19
	.uleb128 0x3
	.uleb128 0xe
	.uleb128 0x3a
	.uleb128 0xb
	.uleb128 0x3b
	.uleb128 0x5
	.uleb128 0x39
	.uleb128 0xb
	.uleb128 0x27
	.uleb128 0x19
	.uleb128 0x87
	.uleb128 0x19
	.uleb128 0x3c
	.uleb128 0x19
	.uleb128 0x1
	.uleb128 0x13
	.byte	0
	.byte	0
	.uleb128 0x27
	.uleb128 0x2e
	.byte	0x1
	.uleb128 0x3f
	.uleb128 0x19
	.uleb128 0x3
	.uleb128 0xe
	.uleb128 0x3a
	.uleb128 0xb
	.uleb128 0x3b
	.uleb128 0xb
	.uleb128 0x39
	.uleb128 0xb
	.uleb128 0x27
	.uleb128 0x19
	.uleb128 0x49
	.uleb128 0x13
	.uleb128 0x11
	.uleb128 0x1
	.uleb128 0x12
	.uleb128 0x7
	.uleb128 0x40
	.uleb128 0x18
	.uleb128 0x7a
	.uleb128 0x19
	.uleb128 0x1
	.uleb128 0x13
	.byte	0
	.byte	0
	.uleb128 0x28
	.uleb128 0x1d
	.byte	0x1
	.uleb128 0x31
	.uleb128 0x13
	.uleb128 0x11
	.uleb128 0x1
	.uleb128 0x12
	.uleb128 0x7
	.uleb128 0x58
	.uleb128 0xb
	.uleb128 0x59
	.uleb128 0xb
	.uleb128 0x57
	.uleb128 0xb
	.uleb128 0x1
	.uleb128 0x13
	.byte	0
	.byte	0
	.uleb128 0x29
	.uleb128 0x1d
	.byte	0x1
	.uleb128 0x31
	.uleb128 0x13
	.uleb128 0x52
	.uleb128 0x1
	.uleb128 0x2138
	.uleb128 0x5
	.uleb128 0x55
	.uleb128 0x17
	.uleb128 0x58
	.uleb128 0xb
	.uleb128 0x59
	.uleb128 0xb
	.uleb128 0x57
	.uleb128 0xb
	.byte	0
	.byte	0
	.uleb128 0x2a
	.uleb128 0x2e
	.byte	0x1
	.uleb128 0x3f
	.uleb128 0x19
	.uleb128 0x3
	.uleb128 0xe
	.uleb128 0x3a
	.uleb128 0xb
	.uleb128 0x3b
	.uleb128 0xb
	.uleb128 0x39
	.uleb128 0xb
	.uleb128 0x27
	.uleb128 0x19
	.uleb128 0x49
	.uleb128 0x13
	.uleb128 0x20
	.uleb128 0xb
	.uleb128 0x1
	.uleb128 0x13
	.byte	0
	.byte	0
	.uleb128 0x2b
	.uleb128 0x5
	.byte	0
	.uleb128 0x3
	.uleb128 0xe
	.uleb128 0x3a
	.uleb128 0xb
	.uleb128 0x3b
	.uleb128 0xb
	.uleb128 0x39
	.uleb128 0xb
	.uleb128 0x49
	.uleb128 0x13
	.byte	0
	.byte	0
	.uleb128 0x2c
	.uleb128 0x2e
	.byte	0x1
	.uleb128 0x3f
	.uleb128 0x19
	.uleb128 0x3
	.uleb128 0xe
	.uleb128 0x3a
	.uleb128 0xb
	.uleb128 0x3b
	.uleb128 0x5
	.uleb128 0x39
	.uleb128 0xb
	.uleb128 0x27
	.uleb128 0x19
	.uleb128 0x49
	.uleb128 0x13
	.uleb128 0x20
	.uleb128 0xb
	.uleb128 0x1
	.uleb128 0x13
	.byte	0
	.byte	0
	.uleb128 0x2d
	.uleb128 0x5
	.byte	0
	.uleb128 0x3
	.uleb128 0xe
	.uleb128 0x3a
	.uleb128 0xb
	.uleb128 0x3b
	.uleb128 0x5
	.uleb128 0x39
	.uleb128 0xb
	.uleb128 0x49
	.uleb128 0x13
	.byte	0
	.byte	0
	.uleb128 0x2e
	.uleb128 0x36
	.byte	0
	.uleb128 0x2
	.uleb128 0x18
	.byte	0
	.byte	0
	.byte	0
	.section	.debug_loclists,"",@progbits
	.4byte	.Ldebug_loc3-.Ldebug_loc2
.Ldebug_loc2:
	.2byte	0x5
	.byte	0x8
	.byte	0
	.4byte	0
.Ldebug_loc0:
.LVUS0:
	.uleb128 0
	.uleb128 .LVU8
	.uleb128 .LVU8
	.uleb128 .LVU253
	.uleb128 .LVU253
	.uleb128 .LVU256
	.uleb128 .LVU256
	.uleb128 0
.LLST0:
	.byte	0x6
	.8byte	.LVL0
	.byte	0x4
	.uleb128 .LVL0-.LVL0
	.uleb128 .LVL2-.LVL0
	.uleb128 0x1
	.byte	0x50
	.byte	0x4
	.uleb128 .LVL2-.LVL0
	.uleb128 .LVL68-.LVL0
	.uleb128 0x4
	.byte	0xa3
	.uleb128 0x1
	.byte	0x50
	.byte	0x9f
	.byte	0x4
	.uleb128 .LVL68-.LVL0
	.uleb128 .LVL70-.LVL0
	.uleb128 0x1
	.byte	0x50
	.byte	0x4
	.uleb128 .LVL70-.LVL0
	.uleb128 .LFE3922-.LVL0
	.uleb128 0x4
	.byte	0xa3
	.uleb128 0x1
	.byte	0x50
	.byte	0x9f
	.byte	0
.LVUS1:
	.uleb128 0
	.uleb128 .LVU9
	.uleb128 .LVU9
	.uleb128 .LVU247
	.uleb128 .LVU247
	.uleb128 .LVU252
	.uleb128 .LVU252
	.uleb128 .LVU253
	.uleb128 .LVU253
	.uleb128 .LVU255
	.uleb128 .LVU255
	.uleb128 0
.LLST1:
	.byte	0x6
	.8byte	.LVL0
	.byte	0x4
	.uleb128 .LVL0-.LVL0
	.uleb128 .LVL3-.LVL0
	.uleb128 0x1
	.byte	0x51
	.byte	0x4
	.uleb128 .LVL3-.LVL0
	.uleb128 .LVL62-.LVL0
	.uleb128 0x1
	.byte	0x65
	.byte	0x4
	.uleb128 .LVL62-.LVL0
	.uleb128 .LVL67-.LVL0
	.uleb128 0x4
	.byte	0xa3
	.uleb128 0x1
	.byte	0x51
	.byte	0x9f
	.byte	0x4
	.uleb128 .LVL67-.LVL0
	.uleb128 .LVL68-.LVL0
	.uleb128 0x1
	.byte	0x65
	.byte	0x4
	.uleb128 .LVL68-.LVL0
	.uleb128 .LVL69-.LVL0
	.uleb128 0x1
	.byte	0x51
	.byte	0x4
	.uleb128 .LVL69-.LVL0
	.uleb128 .LFE3922-.LVL0
	.uleb128 0x1
	.byte	0x65
	.byte	0
.LVUS2:
	.uleb128 .LVU12
	.uleb128 .LVU249
	.uleb128 .LVU252
	.uleb128 .LVU253
	.uleb128 .LVU259
	.uleb128 0
.LLST2:
	.byte	0x6
	.8byte	.LVL5
	.byte	0x4
	.uleb128 .LVL5-.LVL5
	.uleb128 .LVL64-.LVL5
	.uleb128 0x10
	.byte	0x90
	.uleb128 0x49
	.byte	0x93
	.uleb128 0x4
	.byte	0x90
	.uleb128 0x49
	.byte	0x93
	.uleb128 0x4
	.byte	0x90
	.uleb128 0x49
	.byte	0x93
	.uleb128 0x4
	.byte	0x90
	.uleb128 0x49
	.byte	0x93
	.uleb128 0x4
	.byte	0x4
	.uleb128 .LVL67-.LVL5
	.uleb128 .LVL68-.LVL5
	.uleb128 0x10
	.byte	0x90
	.uleb128 0x49
	.byte	0x93
	.uleb128 0x4
	.byte	0x90
	.uleb128 0x49
	.byte	0x93
	.uleb128 0x4
	.byte	0x90
	.uleb128 0x49
	.byte	0x93
	.uleb128 0x4
	.byte	0x90
	.uleb128 0x49
	.byte	0x93
	.uleb128 0x4
	.byte	0x4
	.uleb128 .LVL73-.LVL5
	.uleb128 .LFE3922-.LVL5
	.uleb128 0x10
	.byte	0x90
	.uleb128 0x49
	.byte	0x93
	.uleb128 0x4
	.byte	0x90
	.uleb128 0x49
	.byte	0x93
	.uleb128 0x4
	.byte	0x90
	.uleb128 0x49
	.byte	0x93
	.uleb128 0x4
	.byte	0x90
	.uleb128 0x49
	.byte	0x93
	.uleb128 0x4
	.byte	0
.LVUS3:
	.uleb128 .LVU18
	.uleb128 .LVU60
	.uleb128 .LVU259
	.uleb128 0
.LLST3:
	.byte	0x6
	.8byte	.LVL7
	.byte	0x4
	.uleb128 .LVL7-.LVL7
	.uleb128 .LVL26-.LVL7
	.uleb128 0x10
	.byte	0x90
	.uleb128 0x48
	.byte	0x93
	.uleb128 0x4
	.byte	0x90
	.uleb128 0x48
	.byte	0x93
	.uleb128 0x4
	.byte	0x90
	.uleb128 0x48
	.byte	0x93
	.uleb128 0x4
	.byte	0x90
	.uleb128 0x48
	.byte	0x93
	.uleb128 0x4
	.byte	0x4
	.uleb128 .LVL73-.LVL7
	.uleb128 .LFE3922-.LVL7
	.uleb128 0x10
	.byte	0x90
	.uleb128 0x48
	.byte	0x93
	.uleb128 0x4
	.byte	0x90
	.uleb128 0x48
	.byte	0x93
	.uleb128 0x4
	.byte	0x90
	.uleb128 0x48
	.byte	0x93
	.uleb128 0x4
	.byte	0x90
	.uleb128 0x48
	.byte	0x93
	.uleb128 0x4
	.byte	0
.LVUS4:
	.uleb128 .LVU24
	.uleb128 .LVU251
	.uleb128 .LVU252
	.uleb128 .LVU253
	.uleb128 .LVU259
	.uleb128 0
.LLST4:
	.byte	0x6
	.8byte	.LVL9
	.byte	0x4
	.uleb128 .LVL9-.LVL9
	.uleb128 .LVL66-.LVL9
	.uleb128 0x10
	.byte	0x90
	.uleb128 0x4c
	.byte	0x93
	.uleb128 0x4
	.byte	0x90
	.uleb128 0x4c
	.byte	0x93
	.uleb128 0x4
	.byte	0x90
	.uleb128 0x4c
	.byte	0x93
	.uleb128 0x4
	.byte	0x90
	.uleb128 0x4c
	.byte	0x93
	.uleb128 0x4
	.byte	0x4
	.uleb128 .LVL67-.LVL9
	.uleb128 .LVL68-.LVL9
	.uleb128 0x10
	.byte	0x90
	.uleb128 0x4c
	.byte	0x93
	.uleb128 0x4
	.byte	0x90
	.uleb128 0x4c
	.byte	0x93
	.uleb128 0x4
	.byte	0x90
	.uleb128 0x4c
	.byte	0x93
	.uleb128 0x4
	.byte	0x90
	.uleb128 0x4c
	.byte	0x93
	.uleb128 0x4
	.byte	0x4
	.uleb128 .LVL73-.LVL9
	.uleb128 .LFE3922-.LVL9
	.uleb128 0x10
	.byte	0x90
	.uleb128 0x4c
	.byte	0x93
	.uleb128 0x4
	.byte	0x90
	.uleb128 0x4c
	.byte	0x93
	.uleb128 0x4
	.byte	0x90
	.uleb128 0x4c
	.byte	0x93
	.uleb128 0x4
	.byte	0x90
	.uleb128 0x4c
	.byte	0x93
	.uleb128 0x4
	.byte	0
.LVUS5:
	.uleb128 .LVU31
	.uleb128 .LVU61
	.uleb128 .LVU259
	.uleb128 0
.LLST5:
	.byte	0x6
	.8byte	.LVL11
	.byte	0x4
	.uleb128 .LVL11-.LVL11
	.uleb128 .LVL27-.LVL11
	.uleb128 0x10
	.byte	0x90
	.uleb128 0x4b
	.byte	0x93
	.uleb128 0x4
	.byte	0x90
	.uleb128 0x4b
	.byte	0x93
	.uleb128 0x4
	.byte	0x90
	.uleb128 0x4b
	.byte	0x93
	.uleb128 0x4
	.byte	0x90
	.uleb128 0x4b
	.byte	0x93
	.uleb128 0x4
	.byte	0x4
	.uleb128 .LVL73-.LVL11
	.uleb128 .LFE3922-.LVL11
	.uleb128 0x10
	.byte	0x90
	.uleb128 0x4b
	.byte	0x93
	.uleb128 0x4
	.byte	0x90
	.uleb128 0x4b
	.byte	0x93
	.uleb128 0x4
	.byte	0x90
	.uleb128 0x4b
	.byte	0x93
	.uleb128 0x4
	.byte	0x90
	.uleb128 0x4b
	.byte	0x93
	.uleb128 0x4
	.byte	0
.LVUS6:
	.uleb128 .LVU38
	.uleb128 .LVU79
	.uleb128 .LVU259
	.uleb128 0
.LLST6:
	.byte	0x6
	.8byte	.LVL15
	.byte	0x4
	.uleb128 .LVL15-.LVL15
	.uleb128 .LVL32-.LVL15
	.uleb128 0x1
	.byte	0x64
	.byte	0x4
	.uleb128 .LVL73-.LVL15
	.uleb128 .LFE3922-.LVL15
	.uleb128 0x1
	.byte	0x64
	.byte	0
.LVUS7:
	.uleb128 .LVU42
	.uleb128 .LVU79
	.uleb128 .LVU259
	.uleb128 0
.LLST7:
	.byte	0x6
	.8byte	.LVL17
	.byte	0x4
	.uleb128 .LVL17-.LVL17
	.uleb128 .LVL32-.LVL17
	.uleb128 0x10
	.byte	0x90
	.uleb128 0x4e
	.byte	0x93
	.uleb128 0x4
	.byte	0x90
	.uleb128 0x4e
	.byte	0x93
	.uleb128 0x4
	.byte	0x90
	.uleb128 0x4e
	.byte	0x93
	.uleb128 0x4
	.byte	0x90
	.uleb128 0x4e
	.byte	0x93
	.uleb128 0x4
	.byte	0x4
	.uleb128 .LVL73-.LVL17
	.uleb128 .LFE3922-.LVL17
	.uleb128 0x10
	.byte	0x90
	.uleb128 0x4e
	.byte	0x93
	.uleb128 0x4
	.byte	0x90
	.uleb128 0x4e
	.byte	0x93
	.uleb128 0x4
	.byte	0x90
	.uleb128 0x4e
	.byte	0x93
	.uleb128 0x4
	.byte	0x90
	.uleb128 0x4e
	.byte	0x93
	.uleb128 0x4
	.byte	0
.LVUS8:
	.uleb128 .LVU45
	.uleb128 .LVU79
	.uleb128 .LVU259
	.uleb128 0
.LLST8:
	.byte	0x6
	.8byte	.LVL19
	.byte	0x4
	.uleb128 .LVL19-.LVL19
	.uleb128 .LVL32-.LVL19
	.uleb128 0x10
	.byte	0x90
	.uleb128 0x4d
	.byte	0x93
	.uleb128 0x4
	.byte	0x90
	.uleb128 0x4d
	.byte	0x93
	.uleb128 0x4
	.byte	0x90
	.uleb128 0x4d
	.byte	0x93
	.uleb128 0x4
	.byte	0x90
	.uleb128 0x4d
	.byte	0x93
	.uleb128 0x4
	.byte	0x4
	.uleb128 .LVL73-.LVL19
	.uleb128 .LFE3922-.LVL19
	.uleb128 0x10
	.byte	0x90
	.uleb128 0x4d
	.byte	0x93
	.uleb128 0x4
	.byte	0x90
	.uleb128 0x4d
	.byte	0x93
	.uleb128 0x4
	.byte	0x90
	.uleb128 0x4d
	.byte	0x93
	.uleb128 0x4
	.byte	0x90
	.uleb128 0x4d
	.byte	0x93
	.uleb128 0x4
	.byte	0
.LVUS9:
	.uleb128 .LVU48
	.uleb128 .LVU71
	.uleb128 .LVU259
	.uleb128 0
.LLST9:
	.byte	0x6
	.8byte	.LVL21
	.byte	0x4
	.uleb128 .LVL21-.LVL21
	.uleb128 .LVL29-.LVL21
	.uleb128 0x1
	.byte	0x67
	.byte	0x4
	.uleb128 .LVL73-.LVL21
	.uleb128 .LFE3922-.LVL21
	.uleb128 0x1
	.byte	0x67
	.byte	0
.LVUS10:
	.uleb128 .LVU52
	.uleb128 .LVU56
	.uleb128 .LVU56
	.uleb128 .LVU247
	.uleb128 .LVU252
	.uleb128 .LVU253
	.uleb128 .LVU259
	.uleb128 .LVU260
	.uleb128 .LVU260
	.uleb128 0
.LLST10:
	.byte	0x6
	.8byte	.LVL23
	.byte	0x4
	.uleb128 .LVL23-.LVL23
	.uleb128 .LVL25-1-.LVL23
	.uleb128 0x1
	.byte	0x50
	.byte	0x4
	.uleb128 .LVL25-1-.LVL23
	.uleb128 .LVL62-.LVL23
	.uleb128 0x1
	.byte	0x66
	.byte	0x4
	.uleb128 .LVL67-.LVL23
	.uleb128 .LVL68-.LVL23
	.uleb128 0x1
	.byte	0x66
	.byte	0x4
	.uleb128 .LVL73-.LVL23
	.uleb128 .LVL74-.LVL23
	.uleb128 0x1
	.byte	0x50
	.byte	0x4
	.uleb128 .LVL74-.LVL23
	.uleb128 .LFE3922-.LVL23
	.uleb128 0x1
	.byte	0x66
	.byte	0
.LVUS11:
	.uleb128 .LVU55
	.uleb128 .LVU253
.LLST11:
	.byte	0x8
	.8byte	.LVL24
	.uleb128 .LVL68-.LVL24
	.uleb128 0x6
	.byte	0xa0
	.4byte	.Ldebug_info0+3953
	.sleb128 0
	.byte	0
.LVUS12:
	.uleb128 .LVU66
	.uleb128 .LVU249
	.uleb128 .LVU252
	.uleb128 .LVU253
.LLST12:
	.byte	0x6
	.8byte	.LVL28
	.byte	0x4
	.uleb128 .LVL28-.LVL28
	.uleb128 .LVL64-.LVL28
	.uleb128 0x10
	.byte	0x90
	.uleb128 0x48
	.byte	0x93
	.uleb128 0x4
	.byte	0x90
	.uleb128 0x48
	.byte	0x93
	.uleb128 0x4
	.byte	0x90
	.uleb128 0x48
	.byte	0x93
	.uleb128 0x4
	.byte	0x90
	.uleb128 0x48
	.byte	0x93
	.uleb128 0x4
	.byte	0x4
	.uleb128 .LVL67-.LVL28
	.uleb128 .LVL68-.LVL28
	.uleb128 0x10
	.byte	0x90
	.uleb128 0x48
	.byte	0x93
	.uleb128 0x4
	.byte	0x90
	.uleb128 0x48
	.byte	0x93
	.uleb128 0x4
	.byte	0x90
	.uleb128 0x48
	.byte	0x93
	.uleb128 0x4
	.byte	0x90
	.uleb128 0x48
	.byte	0x93
	.uleb128 0x4
	.byte	0
.LVUS13:
	.uleb128 .LVU72
	.uleb128 .LVU250
	.uleb128 .LVU252
	.uleb128 .LVU253
.LLST13:
	.byte	0x6
	.8byte	.LVL30
	.byte	0x4
	.uleb128 .LVL30-.LVL30
	.uleb128 .LVL65-.LVL30
	.uleb128 0x10
	.byte	0x90
	.uleb128 0x4b
	.byte	0x93
	.uleb128 0x4
	.byte	0x90
	.uleb128 0x4b
	.byte	0x93
	.uleb128 0x4
	.byte	0x90
	.uleb128 0x4b
	.byte	0x93
	.uleb128 0x4
	.byte	0x90
	.uleb128 0x4b
	.byte	0x93
	.uleb128 0x4
	.byte	0x4
	.uleb128 .LVL67-.LVL30
	.uleb128 .LVL68-.LVL30
	.uleb128 0x10
	.byte	0x90
	.uleb128 0x4b
	.byte	0x93
	.uleb128 0x4
	.byte	0x90
	.uleb128 0x4b
	.byte	0x93
	.uleb128 0x4
	.byte	0x90
	.uleb128 0x4b
	.byte	0x93
	.uleb128 0x4
	.byte	0x90
	.uleb128 0x4b
	.byte	0x93
	.uleb128 0x4
	.byte	0
.LVUS14:
	.uleb128 .LVU102
	.uleb128 .LVU209
	.uleb128 .LVU213
	.uleb128 .LVU232
	.uleb128 .LVU252
	.uleb128 .LVU253
.LLST14:
	.byte	0x6
	.8byte	.LVL38
	.byte	0x4
	.uleb128 .LVL38-.LVL38
	.uleb128 .LVL48-1-.LVL38
	.uleb128 0x2
	.byte	0x90
	.uleb128 0x42
	.byte	0x4
	.uleb128 .LVL50-.LVL38
	.uleb128 .LVL53-1-.LVL38
	.uleb128 0x2
	.byte	0x90
	.uleb128 0x42
	.byte	0x4
	.uleb128 .LVL67-.LVL38
	.uleb128 .LVL68-.LVL38
	.uleb128 0x2
	.byte	0x90
	.uleb128 0x42
	.byte	0
.LVUS15:
	.uleb128 .LVU84
	.uleb128 .LVU85
.LLST15:
	.byte	0x8
	.8byte	.LVL33
	.uleb128 .LVL33-.LVL33
	.uleb128 0x2
	.byte	0x90
	.uleb128 0x47
	.byte	0
.LVUS16:
	.uleb128 .LVU85
	.uleb128 .LVU207
	.uleb128 .LVU207
	.uleb128 .LVU212
	.uleb128 .LVU213
	.uleb128 .LVU224
	.uleb128 .LVU224
	.uleb128 .LVU235
	.uleb128 .LVU236
	.uleb128 .LVU243
	.uleb128 .LVU252
	.uleb128 .LVU253
.LLST16:
	.byte	0x6
	.8byte	.LVL33
	.byte	0x4
	.uleb128 .LVL33-.LVL33
	.uleb128 .LVL47-.LVL33
	.uleb128 0x1
	.byte	0x64
	.byte	0x4
	.uleb128 .LVL47-.LVL33
	.uleb128 .LVL49-.LVL33
	.uleb128 0x3
	.byte	0x84
	.sleb128 -1
	.byte	0x9f
	.byte	0x4
	.uleb128 .LVL50-.LVL33
	.uleb128 .LVL51-.LVL33
	.uleb128 0x1
	.byte	0x64
	.byte	0x4
	.uleb128 .LVL51-.LVL33
	.uleb128 .LVL54-.LVL33
	.uleb128 0x3
	.byte	0x84
	.sleb128 -1
	.byte	0x9f
	.byte	0x4
	.uleb128 .LVL55-.LVL33
	.uleb128 .LVL59-.LVL33
	.uleb128 0x1
	.byte	0x64
	.byte	0x4
	.uleb128 .LVL67-.LVL33
	.uleb128 .LVL68-.LVL33
	.uleb128 0x1
	.byte	0x64
	.byte	0
.LVUS17:
	.uleb128 .LVU76
	.uleb128 .LVU238
	.uleb128 .LVU238
	.uleb128 .LVU239
	.uleb128 .LVU239
	.uleb128 .LVU248
	.uleb128 .LVU252
	.uleb128 .LVU253
.LLST17:
	.byte	0x6
	.8byte	.LVL30
	.byte	0x4
	.uleb128 .LVL30-.LVL30
	.uleb128 .LVL55-.LVL30
	.uleb128 0x1
	.byte	0x67
	.byte	0x4
	.uleb128 .LVL55-.LVL30
	.uleb128 .LVL56-.LVL30
	.uleb128 0x3
	.byte	0x87
	.sleb128 1
	.byte	0x9f
	.byte	0x4
	.uleb128 .LVL56-.LVL30
	.uleb128 .LVL63-.LVL30
	.uleb128 0x1
	.byte	0x67
	.byte	0x4
	.uleb128 .LVL67-.LVL30
	.uleb128 .LVL68-.LVL30
	.uleb128 0x1
	.byte	0x67
	.byte	0
.LVUS18:
	.uleb128 .LVU76
	.uleb128 .LVU118
	.uleb128 .LVU118
	.uleb128 .LVU139
	.uleb128 .LVU139
	.uleb128 .LVU145
	.uleb128 .LVU145
	.uleb128 .LVU166
	.uleb128 .LVU166
	.uleb128 .LVU190
	.uleb128 .LVU236
	.uleb128 .LVU246
	.uleb128 .LVU252
	.uleb128 .LVU253
.LLST18:
	.byte	0x6
	.8byte	.LVL30
	.byte	0x4
	.uleb128 .LVL30-.LVL30
	.uleb128 .LVL38-.LVL30
	.uleb128 0x1
	.byte	0x63
	.byte	0x4
	.uleb128 .LVL38-.LVL30
	.uleb128 .LVL39-.LVL30
	.uleb128 0x2
	.byte	0x31
	.byte	0x9f
	.byte	0x4
	.uleb128 .LVL39-.LVL30
	.uleb128 .LVL41-.LVL30
	.uleb128 0x1
	.byte	0x63
	.byte	0x4
	.uleb128 .LVL41-.LVL30
	.uleb128 .LVL43-.LVL30
	.uleb128 0x3
	.byte	0x83
	.sleb128 -1
	.byte	0x9f
	.byte	0x4
	.uleb128 .LVL43-.LVL30
	.uleb128 .LVL45-.LVL30
	.uleb128 0x1
	.byte	0x63
	.byte	0x4
	.uleb128 .LVL55-.LVL30
	.uleb128 .LVL61-.LVL30
	.uleb128 0x1
	.byte	0x63
	.byte	0x4
	.uleb128 .LVL67-.LVL30
	.uleb128 .LVL68-.LVL30
	.uleb128 0x2
	.byte	0x31
	.byte	0x9f
	.byte	0
.LVUS30:
	.uleb128 .LVU103
	.uleb128 .LVU156
	.uleb128 .LVU166
	.uleb128 .LVU190
	.uleb128 .LVU252
	.uleb128 .LVU253
.LLST30:
	.byte	0x6
	.8byte	.LVL38
	.byte	0x4
	.uleb128 .LVL38-.LVL38
	.uleb128 .LVL43-.LVL38
	.uleb128 0x20
	.byte	0x9e
	.uleb128 0x4
	.4byte	0
	.byte	0x93
	.uleb128 0x4
	.byte	0x9e
	.uleb128 0x4
	.4byte	0
	.byte	0x93
	.uleb128 0x4
	.byte	0x9e
	.uleb128 0x4
	.4byte	0
	.byte	0x93
	.uleb128 0x4
	.byte	0x9e
	.uleb128 0x4
	.4byte	0
	.byte	0x93
	.uleb128 0x4
	.byte	0x4
	.uleb128 .LVL43-.LVL38
	.uleb128 .LVL45-.LVL38
	.uleb128 0x20
	.byte	0x9e
	.uleb128 0x4
	.4byte	0
	.byte	0x93
	.uleb128 0x4
	.byte	0x9e
	.uleb128 0x4
	.4byte	0
	.byte	0x93
	.uleb128 0x4
	.byte	0x9e
	.uleb128 0x4
	.4byte	0
	.byte	0x93
	.uleb128 0x4
	.byte	0x9e
	.uleb128 0x4
	.4byte	0
	.byte	0x93
	.uleb128 0x4
	.byte	0x4
	.uleb128 .LVL67-.LVL38
	.uleb128 .LVL68-.LVL38
	.uleb128 0x20
	.byte	0x9e
	.uleb128 0x4
	.4byte	0
	.byte	0x93
	.uleb128 0x4
	.byte	0x9e
	.uleb128 0x4
	.4byte	0
	.byte	0x93
	.uleb128 0x4
	.byte	0x9e
	.uleb128 0x4
	.4byte	0
	.byte	0x93
	.uleb128 0x4
	.byte	0x9e
	.uleb128 0x4
	.4byte	0
	.byte	0x93
	.uleb128 0x4
	.byte	0
.LVUS31:
	.uleb128 .LVU104
	.uleb128 .LVU139
	.uleb128 .LVU139
	.uleb128 .LVU149
	.uleb128 .LVU149
	.uleb128 .LVU185
	.uleb128 .LVU185
	.uleb128 .LVU190
	.uleb128 .LVU252
	.uleb128 .LVU253
.LLST31:
	.byte	0x6
	.8byte	.LVL38
	.byte	0x4
	.uleb128 .LVL38-.LVL38
	.uleb128 .LVL39-.LVL38
	.uleb128 0x20
	.byte	0x9e
	.uleb128 0x4
	.4byte	0
	.byte	0x93
	.uleb128 0x4
	.byte	0x9e
	.uleb128 0x4
	.4byte	0
	.byte	0x93
	.uleb128 0x4
	.byte	0x9e
	.uleb128 0x4
	.4byte	0
	.byte	0x93
	.uleb128 0x4
	.byte	0x9e
	.uleb128 0x4
	.4byte	0
	.byte	0x93
	.uleb128 0x4
	.byte	0x4
	.uleb128 .LVL39-.LVL38
	.uleb128 .LVL43-.LVL38
	.uleb128 0x2
	.byte	0x90
	.uleb128 0x41
	.byte	0x4
	.uleb128 .LVL43-.LVL38
	.uleb128 .LVL44-.LVL38
	.uleb128 0x2
	.byte	0x90
	.uleb128 0x40
	.byte	0x4
	.uleb128 .LVL44-.LVL38
	.uleb128 .LVL45-.LVL38
	.uleb128 0x2
	.byte	0x90
	.uleb128 0x41
	.byte	0x4
	.uleb128 .LVL67-.LVL38
	.uleb128 .LVL68-.LVL38
	.uleb128 0x20
	.byte	0x9e
	.uleb128 0x4
	.4byte	0
	.byte	0x93
	.uleb128 0x4
	.byte	0x9e
	.uleb128 0x4
	.4byte	0
	.byte	0x93
	.uleb128 0x4
	.byte	0x9e
	.uleb128 0x4
	.4byte	0
	.byte	0x93
	.uleb128 0x4
	.byte	0x9e
	.uleb128 0x4
	.4byte	0
	.byte	0x93
	.uleb128 0x4
	.byte	0
.LVUS32:
	.uleb128 .LVU76
	.uleb128 .LVU78
	.uleb128 .LVU78
	.uleb128 .LVU79
	.uleb128 .LVU85
	.uleb128 .LVU87
	.uleb128 .LVU118
	.uleb128 .LVU143
	.uleb128 .LVU160
	.uleb128 .LVU209
	.uleb128 .LVU209
	.uleb128 .LVU213
	.uleb128 .LVU213
	.uleb128 .LVU232
	.uleb128 .LVU232
	.uleb128 .LVU236
	.uleb128 .LVU239
	.uleb128 .LVU241
	.uleb128 .LVU252
	.uleb128 .LVU253
.LLST32:
	.byte	0x6
	.8byte	.LVL30
	.byte	0x4
	.uleb128 .LVL30-.LVL30
	.uleb128 .LVL31-1-.LVL30
	.uleb128 0x2
	.byte	0x90
	.uleb128 0x44
	.byte	0x4
	.uleb128 .LVL31-1-.LVL30
	.uleb128 .LVL32-.LVL30
	.uleb128 0x3
	.byte	0x91
	.sleb128 -144
	.byte	0x4
	.uleb128 .LVL33-.LVL30
	.uleb128 .LVL34-.LVL30
	.uleb128 0x3
	.byte	0x91
	.sleb128 -128
	.byte	0x4
	.uleb128 .LVL38-.LVL30
	.uleb128 .LVL40-.LVL30
	.uleb128 0x2
	.byte	0x90
	.uleb128 0x44
	.byte	0x4
	.uleb128 .LVL43-.LVL30
	.uleb128 .LVL48-1-.LVL30
	.uleb128 0x2
	.byte	0x90
	.uleb128 0x44
	.byte	0x4
	.uleb128 .LVL48-1-.LVL30
	.uleb128 .LVL50-.LVL30
	.uleb128 0x3
	.byte	0x91
	.sleb128 -128
	.byte	0x4
	.uleb128 .LVL50-.LVL30
	.uleb128 .LVL53-1-.LVL30
	.uleb128 0x2
	.byte	0x90
	.uleb128 0x44
	.byte	0x4
	.uleb128 .LVL53-1-.LVL30
	.uleb128 .LVL55-.LVL30
	.uleb128 0x3
	.byte	0x91
	.sleb128 -128
	.byte	0x4
	.uleb128 .LVL56-.LVL30
	.uleb128 .LVL57-.LVL30
	.uleb128 0x3
	.byte	0x91
	.sleb128 -144
	.byte	0x4
	.uleb128 .LVL67-.LVL30
	.uleb128 .LVL68-.LVL30
	.uleb128 0x2
	.byte	0x90
	.uleb128 0x44
	.byte	0
.LVUS33:
	.uleb128 .LVU76
	.uleb128 .LVU78
	.uleb128 .LVU78
	.uleb128 .LVU79
	.uleb128 .LVU85
	.uleb128 .LVU88
	.uleb128 .LVU118
	.uleb128 .LVU147
	.uleb128 .LVU164
	.uleb128 .LVU209
	.uleb128 .LVU209
	.uleb128 .LVU213
	.uleb128 .LVU213
	.uleb128 .LVU232
	.uleb128 .LVU232
	.uleb128 .LVU236
	.uleb128 .LVU239
	.uleb128 .LVU241
	.uleb128 .LVU252
	.uleb128 .LVU253
.LLST33:
	.byte	0x6
	.8byte	.LVL30
	.byte	0x4
	.uleb128 .LVL30-.LVL30
	.uleb128 .LVL31-1-.LVL30
	.uleb128 0x2
	.byte	0x90
	.uleb128 0x45
	.byte	0x4
	.uleb128 .LVL31-1-.LVL30
	.uleb128 .LVL32-.LVL30
	.uleb128 0x3
	.byte	0x91
	.sleb128 -128
	.byte	0x4
	.uleb128 .LVL33-.LVL30
	.uleb128 .LVL35-.LVL30
	.uleb128 0x3
	.byte	0x91
	.sleb128 -112
	.byte	0x4
	.uleb128 .LVL38-.LVL30
	.uleb128 .LVL42-.LVL30
	.uleb128 0x2
	.byte	0x90
	.uleb128 0x45
	.byte	0x4
	.uleb128 .LVL43-.LVL30
	.uleb128 .LVL48-1-.LVL30
	.uleb128 0x2
	.byte	0x90
	.uleb128 0x45
	.byte	0x4
	.uleb128 .LVL48-1-.LVL30
	.uleb128 .LVL50-.LVL30
	.uleb128 0x3
	.byte	0x91
	.sleb128 -112
	.byte	0x4
	.uleb128 .LVL50-.LVL30
	.uleb128 .LVL53-1-.LVL30
	.uleb128 0x2
	.byte	0x90
	.uleb128 0x45
	.byte	0x4
	.uleb128 .LVL53-1-.LVL30
	.uleb128 .LVL55-.LVL30
	.uleb128 0x3
	.byte	0x91
	.sleb128 -112
	.byte	0x4
	.uleb128 .LVL56-.LVL30
	.uleb128 .LVL57-.LVL30
	.uleb128 0x3
	.byte	0x91
	.sleb128 -128
	.byte	0x4
	.uleb128 .LVL67-.LVL30
	.uleb128 .LVL68-.LVL30
	.uleb128 0x2
	.byte	0x90
	.uleb128 0x45
	.byte	0
.LVUS34:
	.uleb128 .LVU109
	.uleb128 .LVU209
	.uleb128 .LVU213
	.uleb128 .LVU232
	.uleb128 .LVU252
	.uleb128 .LVU253
.LLST34:
	.byte	0x6
	.8byte	.LVL38
	.byte	0x4
	.uleb128 .LVL38-.LVL38
	.uleb128 .LVL48-1-.LVL38
	.uleb128 0x2
	.byte	0x90
	.uleb128 0x50
	.byte	0x4
	.uleb128 .LVL50-.LVL38
	.uleb128 .LVL53-1-.LVL38
	.uleb128 0x2
	.byte	0x90
	.uleb128 0x50
	.byte	0x4
	.uleb128 .LVL67-.LVL38
	.uleb128 .LVL68-.LVL38
	.uleb128 0x2
	.byte	0x90
	.uleb128 0x50
	.byte	0
.LVUS35:
	.uleb128 .LVU113
	.uleb128 .LVU201
	.uleb128 .LVU252
	.uleb128 .LVU253
.LLST35:
	.byte	0x6
	.8byte	.LVL38
	.byte	0x4
	.uleb128 .LVL38-.LVL38
	.uleb128 .LVL46-.LVL38
	.uleb128 0x2
	.byte	0x90
	.uleb128 0x4e
	.byte	0x4
	.uleb128 .LVL67-.LVL38
	.uleb128 .LVL68-.LVL38
	.uleb128 0x2
	.byte	0x90
	.uleb128 0x4e
	.byte	0
.LVUS36:
	.uleb128 .LVU116
	.uleb128 .LVU236
	.uleb128 .LVU252
	.uleb128 .LVU253
.LLST36:
	.byte	0x6
	.8byte	.LVL38
	.byte	0x4
	.uleb128 .LVL38-.LVL38
	.uleb128 .LVL55-.LVL38
	.uleb128 0x20
	.byte	0x9e
	.uleb128 0x4
	.4byte	0x40800000
	.byte	0x93
	.uleb128 0x4
	.byte	0x9e
	.uleb128 0x4
	.4byte	0x40800000
	.byte	0x93
	.uleb128 0x4
	.byte	0x9e
	.uleb128 0x4
	.4byte	0x40800000
	.byte	0x93
	.uleb128 0x4
	.byte	0x9e
	.uleb128 0x4
	.4byte	0x40800000
	.byte	0x93
	.uleb128 0x4
	.byte	0x4
	.uleb128 .LVL67-.LVL38
	.uleb128 .LVL68-.LVL38
	.uleb128 0x20
	.byte	0x9e
	.uleb128 0x4
	.4byte	0x40800000
	.byte	0x93
	.uleb128 0x4
	.byte	0x9e
	.uleb128 0x4
	.4byte	0x40800000
	.byte	0x93
	.uleb128 0x4
	.byte	0x9e
	.uleb128 0x4
	.4byte	0x40800000
	.byte	0x93
	.uleb128 0x4
	.byte	0x9e
	.uleb128 0x4
	.4byte	0x40800000
	.byte	0x93
	.uleb128 0x4
	.byte	0
.LVUS37:
	.uleb128 .LVU117
	.uleb128 .LVU236
	.uleb128 .LVU252
	.uleb128 .LVU253
.LLST37:
	.byte	0x6
	.8byte	.LVL38
	.byte	0x4
	.uleb128 .LVL38-.LVL38
	.uleb128 .LVL55-.LVL38
	.uleb128 0x20
	.byte	0x9e
	.uleb128 0x4
	.4byte	0x40000000
	.byte	0x93
	.uleb128 0x4
	.byte	0x9e
	.uleb128 0x4
	.4byte	0x40000000
	.byte	0x93
	.uleb128 0x4
	.byte	0x9e
	.uleb128 0x4
	.4byte	0x40000000
	.byte	0x93
	.uleb128 0x4
	.byte	0x9e
	.uleb128 0x4
	.4byte	0x40000000
	.byte	0x93
	.uleb128 0x4
	.byte	0x4
	.uleb128 .LVL67-.LVL38
	.uleb128 .LVL68-.LVL38
	.uleb128 0x20
	.byte	0x9e
	.uleb128 0x4
	.4byte	0x40000000
	.byte	0x93
	.uleb128 0x4
	.byte	0x9e
	.uleb128 0x4
	.4byte	0x40000000
	.byte	0x93
	.uleb128 0x4
	.byte	0x9e
	.uleb128 0x4
	.4byte	0x40000000
	.byte	0x93
	.uleb128 0x4
	.byte	0x9e
	.uleb128 0x4
	.4byte	0x40000000
	.byte	0x93
	.uleb128 0x4
	.byte	0
.LVUS68:
	.uleb128 .LVU215
	.uleb128 .LVU236
.LLST68:
	.byte	0x8
	.8byte	.LVL50
	.uleb128 .LVL55-.LVL50
	.uleb128 0xc
	.byte	0x63
	.byte	0x93
	.uleb128 0x4
	.byte	0x63
	.byte	0x93
	.uleb128 0x4
	.byte	0x63
	.byte	0x93
	.uleb128 0x4
	.byte	0x63
	.byte	0x93
	.uleb128 0x4
	.byte	0
.LVUS70:
	.uleb128 .LVU217
	.uleb128 .LVU225
.LLST70:
	.byte	0x8
	.8byte	.LVL50
	.uleb128 .LVL52-.LVL50
	.uleb128 0x2
	.byte	0x38
	.byte	0x9f
	.byte	0
.LVUS71:
	.uleb128 .LVU217
	.uleb128 .LVU225
.LLST71:
	.byte	0x8
	.8byte	.LVL50
	.uleb128 .LVL52-.LVL50
	.uleb128 0xc
	.byte	0x63
	.byte	0x93
	.uleb128 0x4
	.byte	0x63
	.byte	0x93
	.uleb128 0x4
	.byte	0x63
	.byte	0x93
	.uleb128 0x4
	.byte	0x63
	.byte	0x93
	.uleb128 0x4
	.byte	0
.LVUS39:
	.uleb128 .LVU121
	.uleb128 .LVU124
	.uleb128 .LVU169
	.uleb128 .LVU172
.LLST39:
	.byte	0x8
	.8byte	.LVL38
	.uleb128 .LVL38-.LVL38
	.uleb128 0x2
	.byte	0x90
	.uleb128 0x45
	.byte	0x8
	.8byte	.LVL43
	.uleb128 .LVL43-.LVL43
	.uleb128 0x2
	.byte	0x90
	.uleb128 0x45
	.byte	0
.LVUS40:
	.uleb128 .LVU121
	.uleb128 .LVU124
	.uleb128 .LVU169
	.uleb128 .LVU172
.LLST40:
	.byte	0x8
	.8byte	.LVL38
	.uleb128 .LVL38-.LVL38
	.uleb128 0x2
	.byte	0x90
	.uleb128 0x44
	.byte	0x8
	.8byte	.LVL43
	.uleb128 .LVL43-.LVL43
	.uleb128 0x2
	.byte	0x90
	.uleb128 0x44
	.byte	0
.LVUS42:
	.uleb128 .LVU111
	.uleb128 .LVU113
.LLST42:
	.byte	0x8
	.8byte	.LVL38
	.uleb128 .LVL38-.LVL38
	.uleb128 0x7
	.byte	0x83
	.sleb128 0
	.byte	0xa8
	.uleb128 0x38
	.byte	0xa8
	.uleb128 0x2a
	.byte	0x9f
	.byte	0
.LVUS45:
	.uleb128 .LVU124
	.uleb128 .LVU127
	.uleb128 .LVU172
	.uleb128 .LVU175
.LLST45:
	.byte	0x8
	.8byte	.LVL38
	.uleb128 .LVL38-.LVL38
	.uleb128 0x20
	.byte	0x9e
	.uleb128 0x4
	.4byte	0x40800000
	.byte	0x93
	.uleb128 0x4
	.byte	0x9e
	.uleb128 0x4
	.4byte	0x40800000
	.byte	0x93
	.uleb128 0x4
	.byte	0x9e
	.uleb128 0x4
	.4byte	0x40800000
	.byte	0x93
	.uleb128 0x4
	.byte	0x9e
	.uleb128 0x4
	.4byte	0x40800000
	.byte	0x93
	.uleb128 0x4
	.byte	0x8
	.8byte	.LVL43
	.uleb128 .LVL43-.LVL43
	.uleb128 0x20
	.byte	0x9e
	.uleb128 0x4
	.4byte	0x40800000
	.byte	0x93
	.uleb128 0x4
	.byte	0x9e
	.uleb128 0x4
	.4byte	0x40800000
	.byte	0x93
	.uleb128 0x4
	.byte	0x9e
	.uleb128 0x4
	.4byte	0x40800000
	.byte	0x93
	.uleb128 0x4
	.byte	0x9e
	.uleb128 0x4
	.4byte	0x40800000
	.byte	0x93
	.uleb128 0x4
	.byte	0
.LVUS46:
	.uleb128 .LVU124
	.uleb128 .LVU127
.LLST46:
	.byte	0x8
	.8byte	.LVL38
	.uleb128 .LVL38-.LVL38
	.uleb128 0x2
	.byte	0x90
	.uleb128 0x41
	.byte	0
.LVUS48:
	.uleb128 .LVU119
	.uleb128 .LVU121
	.uleb128 .LVU167
	.uleb128 .LVU169
.LLST48:
	.byte	0x8
	.8byte	.LVL38
	.uleb128 .LVL38-.LVL38
	.uleb128 0x2
	.byte	0x90
	.uleb128 0x50
	.byte	0x8
	.8byte	.LVL43
	.uleb128 .LVL43-.LVL43
	.uleb128 0x2
	.byte	0x90
	.uleb128 0x50
	.byte	0
.LVUS49:
	.uleb128 .LVU119
	.uleb128 .LVU121
	.uleb128 .LVU167
	.uleb128 .LVU169
.LLST49:
	.byte	0x8
	.8byte	.LVL38
	.uleb128 .LVL38-.LVL38
	.uleb128 0x2
	.byte	0x90
	.uleb128 0x4e
	.byte	0x8
	.8byte	.LVL43
	.uleb128 .LVL43-.LVL43
	.uleb128 0x2
	.byte	0x90
	.uleb128 0x4e
	.byte	0
.LVUS51:
	.uleb128 .LVU127
	.uleb128 .LVU130
	.uleb128 .LVU175
	.uleb128 .LVU178
.LLST51:
	.byte	0x8
	.8byte	.LVL38
	.uleb128 .LVL38-.LVL38
	.uleb128 0x2
	.byte	0x90
	.uleb128 0x43
	.byte	0x8
	.8byte	.LVL43
	.uleb128 .LVL43-.LVL43
	.uleb128 0x2
	.byte	0x90
	.uleb128 0x43
	.byte	0
.LVUS53:
	.uleb128 .LVU130
	.uleb128 .LVU135
	.uleb128 .LVU178
	.uleb128 .LVU183
.LLST53:
	.byte	0x8
	.8byte	.LVL38
	.uleb128 .LVL38-.LVL38
	.uleb128 0x2
	.byte	0x33
	.byte	0x9f
	.byte	0x8
	.8byte	.LVL43
	.uleb128 .LVL43-.LVL43
	.uleb128 0x2
	.byte	0x33
	.byte	0x9f
	.byte	0
.LVUS55:
	.uleb128 .LVU140
	.uleb128 .LVU149
.LLST55:
	.byte	0x8
	.8byte	.LVL39
	.uleb128 .LVL43-.LVL39
	.uleb128 0x2
	.byte	0x90
	.uleb128 0x47
	.byte	0
.LVUS58:
	.uleb128 .LVU153
	.uleb128 .LVU156
.LLST58:
	.byte	0x8
	.8byte	.LVL43
	.uleb128 .LVL43-.LVL43
	.uleb128 0x2
	.byte	0x90
	.uleb128 0x42
	.byte	0
.LVUS61:
	.uleb128 .LVU162
	.uleb128 .LVU164
.LLST61:
	.byte	0x8
	.8byte	.LVL43
	.uleb128 .LVL43-.LVL43
	.uleb128 0x2
	.byte	0x90
	.uleb128 0x40
	.byte	0
.LVUS64:
	.uleb128 .LVU192
	.uleb128 .LVU194
.LLST64:
	.byte	0x8
	.8byte	.LVL45
	.uleb128 .LVL45-.LVL45
	.uleb128 0x2
	.byte	0x90
	.uleb128 0x50
	.byte	0
.LVUS65:
	.uleb128 .LVU192
	.uleb128 .LVU194
.LLST65:
	.byte	0x8
	.8byte	.LVL45
	.uleb128 .LVL45-.LVL45
	.uleb128 0x2
	.byte	0x90
	.uleb128 0x4e
	.byte	0
.LVUS67:
	.uleb128 .LVU194
	.uleb128 .LVU199
.LLST67:
	.byte	0x8
	.8byte	.LVL45
	.uleb128 .LVL45-.LVL45
	.uleb128 0x2
	.byte	0x33
	.byte	0x9f
	.byte	0
.LVUS19:
	.uleb128 .LVU5
	.uleb128 .LVU9
	.uleb128 .LVU9
	.uleb128 .LVU10
.LLST19:
	.byte	0x6
	.8byte	.LVL1
	.byte	0x4
	.uleb128 .LVL1-.LVL1
	.uleb128 .LVL3-.LVL1
	.uleb128 0x2
	.byte	0x71
	.sleb128 8
	.byte	0x4
	.uleb128 .LVL3-.LVL1
	.uleb128 .LVL4-1-.LVL1
	.uleb128 0x1
	.byte	0x50
	.byte	0
.LVUS20:
	.uleb128 .LVU13
	.uleb128 .LVU16
.LLST20:
	.byte	0x8
	.8byte	.LVL5
	.uleb128 .LVL6-1-.LVL5
	.uleb128 0x2
	.byte	0x85
	.sleb128 16
	.byte	0
.LVUS21:
	.uleb128 .LVU19
	.uleb128 .LVU22
.LLST21:
	.byte	0x8
	.8byte	.LVL7
	.uleb128 .LVL8-1-.LVL7
	.uleb128 0x2
	.byte	0x85
	.sleb128 24
	.byte	0
.LVUS22:
	.uleb128 .LVU25
	.uleb128 .LVU28
.LLST22:
	.byte	0x8
	.8byte	.LVL9
	.uleb128 .LVL10-1-.LVL9
	.uleb128 0x2
	.byte	0x85
	.sleb128 32
	.byte	0
.LVUS23:
	.uleb128 .LVU33
	.uleb128 .LVU36
.LLST23:
	.byte	0x8
	.8byte	.LVL12
	.uleb128 .LVL13-1-.LVL12
	.uleb128 0x2
	.byte	0x85
	.sleb128 40
	.byte	0
.LVUS24:
	.uleb128 .LVU57
	.uleb128 .LVU59
.LLST24:
	.byte	0x8
	.8byte	.LVL25
	.uleb128 .LVL25-.LVL25
	.uleb128 0x10
	.byte	0x90
	.uleb128 0x49
	.byte	0x93
	.uleb128 0x4
	.byte	0x90
	.uleb128 0x49
	.byte	0x93
	.uleb128 0x4
	.byte	0x90
	.uleb128 0x49
	.byte	0x93
	.uleb128 0x4
	.byte	0x90
	.uleb128 0x49
	.byte	0x93
	.uleb128 0x4
	.byte	0
.LVUS25:
	.uleb128 .LVU57
	.uleb128 .LVU59
.LLST25:
	.byte	0x8
	.8byte	.LVL25
	.uleb128 .LVL25-.LVL25
	.uleb128 0x10
	.byte	0x90
	.uleb128 0x48
	.byte	0x93
	.uleb128 0x4
	.byte	0x90
	.uleb128 0x48
	.byte	0x93
	.uleb128 0x4
	.byte	0x90
	.uleb128 0x48
	.byte	0x93
	.uleb128 0x4
	.byte	0x90
	.uleb128 0x48
	.byte	0x93
	.uleb128 0x4
	.byte	0
.LVUS27:
	.uleb128 .LVU67
	.uleb128 .LVU69
.LLST27:
	.byte	0x8
	.8byte	.LVL28
	.uleb128 .LVL28-.LVL28
	.uleb128 0x10
	.byte	0x90
	.uleb128 0x4c
	.byte	0x93
	.uleb128 0x4
	.byte	0x90
	.uleb128 0x4c
	.byte	0x93
	.uleb128 0x4
	.byte	0x90
	.uleb128 0x4c
	.byte	0x93
	.uleb128 0x4
	.byte	0x90
	.uleb128 0x4c
	.byte	0x93
	.uleb128 0x4
	.byte	0
.Ldebug_loc3:
	.section	.debug_aranges,"",@progbits
	.4byte	0x2c
	.2byte	0x2
	.4byte	.Ldebug_info0
	.byte	0x8
	.byte	0
	.2byte	0
	.2byte	0
	.8byte	.LFB3922
	.8byte	.LFE3922-.LFB3922
	.8byte	0
	.8byte	0
	.section	.debug_rnglists,"",@progbits
.Ldebug_ranges0:
	.4byte	.Ldebug_ranges3-.Ldebug_ranges2
.Ldebug_ranges2:
	.2byte	0x5
	.byte	0x8
	.byte	0
	.4byte	0
.LLRL26:
	.byte	0x5
	.8byte	.LBB106
	.byte	0x4
	.uleb128 .LBB106-.LBB106
	.uleb128 .LBE106-.LBB106
	.byte	0x4
	.uleb128 .LBB109-.LBB106
	.uleb128 .LBE109-.LBB106
	.byte	0
.LLRL28:
	.byte	0x5
	.8byte	.LBB110
	.byte	0x4
	.uleb128 .LBB110-.LBB110
	.uleb128 .LBE110-.LBB110
	.byte	0x4
	.uleb128 .LBB200-.LBB110
	.uleb128 .LBE200-.LBB110
	.byte	0
.LLRL29:
	.byte	0x5
	.8byte	.LBB111
	.byte	0x4
	.uleb128 .LBB111-.LBB111
	.uleb128 .LBE111-.LBB111
	.byte	0x4
	.uleb128 .LBB198-.LBB111
	.uleb128 .LBE198-.LBB111
	.byte	0x4
	.uleb128 .LBB199-.LBB111
	.uleb128 .LBE199-.LBB111
	.byte	0
.LLRL38:
	.byte	0x5
	.8byte	.LBB112
	.byte	0x4
	.uleb128 .LBB112-.LBB112
	.uleb128 .LBE112-.LBB112
	.byte	0x4
	.uleb128 .LBB140-.LBB112
	.uleb128 .LBE140-.LBB112
	.byte	0x4
	.uleb128 .LBB172-.LBB112
	.uleb128 .LBE172-.LBB112
	.byte	0x4
	.uleb128 .LBB176-.LBB112
	.uleb128 .LBE176-.LBB112
	.byte	0
.LLRL41:
	.byte	0x5
	.8byte	.LBB117
	.byte	0x4
	.uleb128 .LBB117-.LBB117
	.uleb128 .LBE117-.LBB117
	.byte	0x4
	.uleb128 .LBB138-.LBB117
	.uleb128 .LBE138-.LBB117
	.byte	0
.LLRL43:
	.byte	0x5
	.8byte	.LBB120
	.byte	0x4
	.uleb128 .LBB120-.LBB120
	.uleb128 .LBE120-.LBB120
	.byte	0x4
	.uleb128 .LBB137-.LBB120
	.uleb128 .LBE137-.LBB120
	.byte	0
.LLRL44:
	.byte	0x5
	.8byte	.LBB123
	.byte	0x4
	.uleb128 .LBB123-.LBB123
	.uleb128 .LBE123-.LBB123
	.byte	0x4
	.uleb128 .LBB141-.LBB123
	.uleb128 .LBE141-.LBB123
	.byte	0x4
	.uleb128 .LBB173-.LBB123
	.uleb128 .LBE173-.LBB123
	.byte	0x4
	.uleb128 .LBB177-.LBB123
	.uleb128 .LBE177-.LBB123
	.byte	0
.LLRL47:
	.byte	0x5
	.8byte	.LBB128
	.byte	0x4
	.uleb128 .LBB128-.LBB128
	.uleb128 .LBE128-.LBB128
	.byte	0x4
	.uleb128 .LBB139-.LBB128
	.uleb128 .LBE139-.LBB128
	.byte	0x4
	.uleb128 .LBB171-.LBB128
	.uleb128 .LBE171-.LBB128
	.byte	0
.LLRL50:
	.byte	0x5
	.8byte	.LBB132
	.byte	0x4
	.uleb128 .LBB132-.LBB132
	.uleb128 .LBE132-.LBB132
	.byte	0x4
	.uleb128 .LBB142-.LBB132
	.uleb128 .LBE142-.LBB132
	.byte	0x4
	.uleb128 .LBB174-.LBB132
	.uleb128 .LBE174-.LBB132
	.byte	0x4
	.uleb128 .LBB178-.LBB132
	.uleb128 .LBE178-.LBB132
	.byte	0
.LLRL52:
	.byte	0x5
	.8byte	.LBB143
	.byte	0x4
	.uleb128 .LBB143-.LBB143
	.uleb128 .LBE143-.LBB143
	.byte	0x4
	.uleb128 .LBB175-.LBB143
	.uleb128 .LBE175-.LBB143
	.byte	0x4
	.uleb128 .LBB179-.LBB143
	.uleb128 .LBE179-.LBB143
	.byte	0
.LLRL54:
	.byte	0x5
	.8byte	.LBB147
	.byte	0x4
	.uleb128 .LBB147-.LBB147
	.uleb128 .LBE147-.LBB147
	.byte	0x4
	.uleb128 .LBB155-.LBB147
	.uleb128 .LBE155-.LBB147
	.byte	0x4
	.uleb128 .LBB159-.LBB147
	.uleb128 .LBE159-.LBB147
	.byte	0x4
	.uleb128 .LBB166-.LBB147
	.uleb128 .LBE166-.LBB147
	.byte	0
.LLRL56:
	.byte	0x5
	.8byte	.LBB152
	.byte	0x4
	.uleb128 .LBB152-.LBB152
	.uleb128 .LBE152-.LBB152
	.byte	0x4
	.uleb128 .LBB167-.LBB152
	.uleb128 .LBE167-.LBB152
	.byte	0
.LLRL57:
	.byte	0x5
	.8byte	.LBB156
	.byte	0x4
	.uleb128 .LBB156-.LBB156
	.uleb128 .LBE156-.LBB156
	.byte	0x4
	.uleb128 .LBB168-.LBB156
	.uleb128 .LBE168-.LBB156
	.byte	0
.LLRL59:
	.byte	0x5
	.8byte	.LBB160
	.byte	0x4
	.uleb128 .LBB160-.LBB160
	.uleb128 .LBE160-.LBB160
	.byte	0x4
	.uleb128 .LBB169-.LBB160
	.uleb128 .LBE169-.LBB160
	.byte	0
.LLRL60:
	.byte	0x5
	.8byte	.LBB163
	.byte	0x4
	.uleb128 .LBB163-.LBB163
	.uleb128 .LBE163-.LBB163
	.byte	0x4
	.uleb128 .LBB170-.LBB163
	.uleb128 .LBE170-.LBB163
	.byte	0
.LLRL63:
	.byte	0x5
	.8byte	.LBB180
	.byte	0x4
	.uleb128 .LBB180-.LBB180
	.uleb128 .LBE180-.LBB180
	.byte	0x4
	.uleb128 .LBB186-.LBB180
	.uleb128 .LBE186-.LBB180
	.byte	0
.LLRL66:
	.byte	0x5
	.8byte	.LBB183
	.byte	0x4
	.uleb128 .LBB183-.LBB183
	.uleb128 .LBE183-.LBB183
	.byte	0x4
	.uleb128 .LBB187-.LBB183
	.uleb128 .LBE187-.LBB183
	.byte	0
.LLRL69:
	.byte	0x5
	.8byte	.LBB190
	.byte	0x4
	.uleb128 .LBB190-.LBB190
	.uleb128 .LBE190-.LBB190
	.byte	0x4
	.uleb128 .LBB194-.LBB190
	.uleb128 .LBE194-.LBB190
	.byte	0x4
	.uleb128 .LBB197-.LBB190
	.uleb128 .LBE197-.LBB190
	.byte	0
.LLRL72:
	.byte	0x7
	.8byte	.LFB3922
	.uleb128 .LFE3922-.LFB3922
	.byte	0
.Ldebug_ranges3:
	.section	.debug_line,"",@progbits
.Ldebug_line0:
	.section	.debug_str,"MS",@progbits,1
.LASF23:
	.string	"float32x4_t"
.LASF102:
	.string	"GNU C17 13.2.1 20231011 (Red Hat 13.2.1-4) -mlittle-endian -mabi=lp64 -g -O3"
.LASF44:
	.string	"_old_offset"
.LASF87:
	.string	"black"
.LASF31:
	.string	"_IO_read_base"
.LASF103:
	.string	"_IO_FILE"
.LASF39:
	.string	"_IO_save_end"
.LASF6:
	.string	"short int"
.LASF27:
	.string	"size_t"
.LASF88:
	.string	"color"
.LASF49:
	.string	"_offset"
.LASF74:
	.string	"xmin"
.LASF69:
	.string	"strtol"
.LASF33:
	.string	"_IO_write_ptr"
.LASF28:
	.string	"_flags"
.LASF18:
	.string	"__uint32_t"
.LASF35:
	.string	"_IO_buf_base"
.LASF16:
	.string	"__Float32x4_t"
.LASF40:
	.string	"_markers"
.LASF99:
	.string	"vandq_u32"
.LASF53:
	.string	"_freeres_buf"
.LASF94:
	.string	"vdupq_n_u32"
.LASF81:
	.string	"filename"
.LASF77:
	.string	"ymax"
.LASF5:
	.string	"signed char"
.LASF30:
	.string	"_IO_read_end"
.LASF2:
	.string	"float"
.LASF100:
	.string	"vmulq_f32"
.LASF57:
	.string	"FILE"
.LASF97:
	.string	"vcgeq_f32"
.LASF61:
	.string	"long long int"
.LASF48:
	.string	"_lock"
.LASF64:
	.string	"strtod"
.LASF7:
	.string	"long int"
.LASF71:
	.string	"printf"
.LASF76:
	.string	"ymin"
.LASF26:
	.string	"float32_t"
.LASF85:
	.string	"mmaxiter"
.LASF25:
	.string	"__Poly128_t"
.LASF89:
	.string	"atof"
.LASF90:
	.string	"atoi"
.LASF73:
	.string	"argv"
.LASF70:
	.string	"exit"
.LASF8:
	.string	"unsigned char"
.LASF79:
	.string	"xres"
.LASF13:
	.string	"__Poly64_t"
.LASF72:
	.string	"argc"
.LASF67:
	.string	"fprintf"
.LASF101:
	.string	"vaddq_f32"
.LASF50:
	.string	"_codecvt"
.LASF62:
	.string	"long long unsigned int"
.LASF22:
	.string	"uint32_t"
.LASF10:
	.string	"unsigned int"
.LASF58:
	.string	"_IO_marker"
.LASF47:
	.string	"_shortbuf"
.LASF82:
	.string	"comment"
.LASF32:
	.string	"_IO_write_base"
.LASF56:
	.string	"_unused2"
.LASF15:
	.string	"__Uint32x4_t"
.LASF29:
	.string	"_IO_read_ptr"
.LASF3:
	.string	"double"
.LASF86:
	.string	"mcl2"
.LASF36:
	.string	"_IO_buf_end"
.LASF93:
	.string	"vdups_laneq_u32"
.LASF83:
	.string	"stepx"
.LASF84:
	.string	"stepy"
.LASF21:
	.string	"char"
.LASF105:
	.string	"main"
.LASF51:
	.string	"_wide_data"
.LASF52:
	.string	"_freeres_list"
.LASF65:
	.string	"fclose"
.LASF54:
	.string	"__pad5"
.LASF9:
	.string	"short unsigned int"
.LASF66:
	.string	"fwrite"
.LASF4:
	.string	"long unsigned int"
.LASF14:
	.string	"__fp16"
.LASF80:
	.string	"yres"
.LASF34:
	.string	"_IO_write_end"
.LASF78:
	.string	"maxiter"
.LASF20:
	.string	"__off64_t"
.LASF42:
	.string	"_fileno"
.LASF41:
	.string	"_chain"
.LASF63:
	.string	"__unknown__"
.LASF24:
	.string	"uint32x4_t"
.LASF55:
	.string	"_mode"
.LASF75:
	.string	"xmax"
.LASF38:
	.string	"_IO_backup_base"
.LASF19:
	.string	"__off_t"
.LASF43:
	.string	"_flags2"
.LASF59:
	.string	"_IO_codecvt"
.LASF17:
	.string	"__bf16"
.LASF46:
	.string	"_vtable_offset"
.LASF60:
	.string	"_IO_wide_data"
.LASF11:
	.string	"__Poly8_t"
.LASF68:
	.string	"fopen"
.LASF37:
	.string	"_IO_save_base"
.LASF96:
	.string	"vcltq_f32"
.LASF98:
	.string	"vsubq_f32"
.LASF91:
	.string	"__nptr"
.LASF45:
	.string	"_cur_column"
.LASF95:
	.string	"vdupq_n_f32"
.LASF12:
	.string	"__Poly16_t"
.LASF92:
	.string	"vshrq_n_u32"
.LASF104:
	.string	"_IO_lock_t"
	.section	.debug_line_str,"MS",@progbits,1
.LASF1:
	.string	"/home/adilh/Downloads/mandelbrot"
.LASF0:
	.string	"mandelbrot_neon128.c"
	.ident	"GCC: (GNU) 13.2.1 20231011 (Red Hat 13.2.1-4)"
	.section	.note.GNU-stack,"",@progbits
