	.arch armv8-a
	.file	"mandelbrot_neon128.c"
// GNU C17 (GCC) version 13.2.1 20231011 (Red Hat 13.2.1-4) (aarch64-redhat-linux)
//	compiled by GNU C version 13.2.1 20231011 (Red Hat 13.2.1-4), GMP version 6.2.1, MPFR version 4.2.0-p12, MPC version 1.3.1, isl version none
// GGC heuristics: --param ggc-min-expand=100 --param ggc-min-heapsize=131072
// options passed: -mlittle-endian -mabi=lp64 -g -O3
	.text
.Ltext0:
	.file 0 "/home/adilh/Downloads/mandelbrot" "mandelbrot_neon128.c"
	.section	.rodata.str1.8,"aMS",@progbits,1
	.align	3
.LC0:
	.string	"Usage:   %s <xmin> <xmax> <ymin> <ymax> <maxiter> <xres> <yres> <out.ppm>\n"
	.align	3
.LC1:
	.string	"Example: %s 0.27085 0.27100 0.004640 0.004810 1000 640 480 pic.ppm\n"
	.align	3
.LC2:
	.string	"xmin: %f, xmax: %f, ymin: %f, ymax: %f\n"
	.align	3
.LC3:
	.string	"xres: %f, yres: %f\n"
	.align	3
.LC4:
	.string	"wb"
	.align	3
.LC5:
	.string	"Error opening file: %s\n"
	.align	3
.LC6:
	.string	"P6\n# Mandelbrot, maxiter=%d\n"
	.section	.text.startup,"ax",@progbits
	.align	2
	.p2align 4,,11
	.global	main
	.type	main, %function
main:
.LVL0:
.LFB3922:
	.file 1 "mandelbrot_neon128.c"
	.loc 1 20 1 view -0
	.cfi_startproc
	.loc 1 22 3 view .LVU1
// mandelbrot_neon128.c:20: {
	.loc 1 20 1 is_stmt 0 view .LVU2
	stp	x29, x30, [sp, -256]!	//,,,
	.cfi_def_cfa_offset 256
	.cfi_offset 29, -256
	.cfi_offset 30, -248
	mov	x29, sp	//,
	stp	x19, x20, [sp, 16]	//,,
	stp	x21, x22, [sp, 32]	//,,
	.cfi_offset 19, -240
	.cfi_offset 20, -232
	.cfi_offset 21, -224
	.cfi_offset 22, -216
	mov	x21, x1	// argv, tmp259
	str	x23, [sp, 48]	//,
	str	d14, [sp, 56]	//,
	stp	d8, d9, [sp, 64]	//,,
	stp	d10, d11, [sp, 80]	//,,
	stp	d12, d13, [sp, 96]	//,,
	.cfi_offset 23, -208
	.cfi_offset 78, -200
	.cfi_offset 72, -192
	.cfi_offset 73, -184
	.cfi_offset 74, -176
	.cfi_offset 75, -168
	.cfi_offset 76, -160
	.cfi_offset 77, -152
// mandelbrot_neon128.c:22:   if (argc != 9) {
	.loc 1 22 6 view .LVU3
	cmp	w0, 9	// tmp258,
	bne	.L16		//,
	.loc 1 33 3 is_stmt 1 view .LVU4
.LVL1:
.LBB94:
.LBI94:
	.file 2 "/usr/include/bits/stdlib-float.h"
	.loc 2 25 1 view .LVU5
.LBB95:
	.loc 2 27 3 view .LVU6
// /usr/include/bits/stdlib-float.h:27:   return strtod (__nptr, (char **) NULL);
	.loc 2 27 10 is_stmt 0 view .LVU7
	ldr	x0, [x21, 8]	//, MEM[(char * *)argv_56(D) + 8B]
.LVL2:
	.loc 2 27 10 view .LVU8
	mov	x1, 0	//,
.LVL3:
	.loc 2 27 10 view .LVU9
	stp	q4, q5, [sp, 112]	// Zx2, Zy2, %sfp
	bl	strtod		//
.LVL4:
	.loc 2 27 10 view .LVU10
.LBE95:
.LBE94:
// mandelbrot_neon128.c:33:   const float32x4_t xmin = vdupq_n_f32(atof(argv[1]));
	.loc 1 33 28 discriminator 1 view .LVU11
	fcvt	s9, d0	// _4, tmp260
.LVL5:
	.loc 1 34 3 is_stmt 1 view .LVU12
.LBB96:
.LBI96:
	.loc 2 25 1 view .LVU13
.LBB97:
	.loc 2 27 3 view .LVU14
// /usr/include/bits/stdlib-float.h:27:   return strtod (__nptr, (char **) NULL);
	.loc 2 27 10 is_stmt 0 view .LVU15
	ldr	x0, [x21, 16]	//, MEM[(char * *)argv_56(D) + 16B]
	mov	x1, 0	//,
	bl	strtod		//
.LVL6:
	.loc 2 27 10 view .LVU16
.LBE97:
.LBE96:
// mandelbrot_neon128.c:34:   const float32x4_t xmax = vdupq_n_f32(atof(argv[2]));
	.loc 1 34 28 discriminator 1 view .LVU17
	fcvt	s8, d0	// _6, tmp261
.LVL7:
	.loc 1 35 3 is_stmt 1 view .LVU18
.LBB98:
.LBI98:
	.loc 2 25 1 view .LVU19
.LBB99:
	.loc 2 27 3 view .LVU20
// /usr/include/bits/stdlib-float.h:27:   return strtod (__nptr, (char **) NULL);
	.loc 2 27 10 is_stmt 0 view .LVU21
	ldr	x0, [x21, 24]	//, MEM[(char * *)argv_56(D) + 24B]
	mov	x1, 0	//,
	bl	strtod		//
.LVL8:
	.loc 2 27 10 view .LVU22
.LBE99:
.LBE98:
// mandelbrot_neon128.c:35:   const float32x4_t ymin = vdupq_n_f32(atof(argv[3]));
	.loc 1 35 28 discriminator 1 view .LVU23
	fcvt	s12, d0	// _8, tmp262
.LVL9:
	.loc 1 36 3 is_stmt 1 view .LVU24
.LBB100:
.LBI100:
	.loc 2 25 1 view .LVU25
.LBB101:
	.loc 2 27 3 view .LVU26
// /usr/include/bits/stdlib-float.h:27:   return strtod (__nptr, (char **) NULL);
	.loc 2 27 10 is_stmt 0 view .LVU27
	ldr	x0, [x21, 32]	//, MEM[(char * *)argv_56(D) + 32B]
	mov	x1, 0	//,
	bl	strtod		//
.LVL10:
	.loc 2 27 10 view .LVU28
	fmov	d11, d0	// tmp263,
.LBE101:
.LBE100:
// mandelbrot_neon128.c:38:   printf("xmin: %f, xmax: %f, ymin: %f, ymax: %f\n", xmin[0], xmax[0], ymin[0], ymax[0]);
	.loc 1 38 3 view .LVU29
	fcvt	d1, s8	//, _6
	fcvt	d0, s9	//, _4
	fcvt	d2, s12	//, _8
	adrp	x0, .LC2	// tmp193,
	add	x0, x0, :lo12:.LC2	//, tmp193,
// mandelbrot_neon128.c:36:   const float32x4_t ymax = vdupq_n_f32(atof(argv[4]));
	.loc 1 36 28 discriminator 1 view .LVU30
	fcvt	s11, d11	// _10, tmp263
.LVL11:
	.loc 1 38 3 is_stmt 1 view .LVU31
	fcvt	d3, s11	//, _10
	bl	printf		//
.LVL12:
	.loc 1 41 3 view .LVU32
.LBB102:
.LBI102:
	.file 3 "/usr/include/stdlib.h"
	.loc 3 481 1 view .LVU33
.LBB103:
	.loc 3 483 3 view .LVU34
// /usr/include/stdlib.h:483:   return (int) strtol (__nptr, (char **) NULL, 10);
	.loc 3 483 16 is_stmt 0 view .LVU35
	ldr	x0, [x21, 40]	//, MEM[(char * *)argv_56(D) + 40B]
	mov	w2, 10	//,
	mov	x1, 0	//,
	bl	strtol		//
.LVL13:
// /usr/include/stdlib.h:483:   return (int) strtol (__nptr, (char **) NULL, 10);
	.loc 3 483 10 discriminator 1 view .LVU36
	fmov	s10, w0	// _102, _104
.LVL14:
// /usr/include/stdlib.h:483:   return (int) strtol (__nptr, (char **) NULL, 10);
	.loc 3 483 16 view .LVU37
	mov	x20, x0	// tmp264,
.LVL15:
	.loc 3 483 16 view .LVU38
.LBE103:
.LBE102:
	.loc 1 44 3 is_stmt 1 view .LVU39
// mandelbrot_neon128.c:44:   const float32x4_t xres = vdupq_n_f32(strtol(argv[6], NULL, 10));
	.loc 1 44 40 is_stmt 0 view .LVU40
	mov	w2, 10	//,
	ldr	x0, [x21, 48]	//, MEM[(char * *)argv_56(D) + 48B]
	mov	x1, 0	//,
	bl	strtol		//
.LVL16:
// mandelbrot_neon128.c:44:   const float32x4_t xres = vdupq_n_f32(strtol(argv[6], NULL, 10));
	.loc 1 44 28 discriminator 1 view .LVU41
	scvtf	s14, x0	// _18, tmp265
.LVL17:
	.loc 1 45 3 is_stmt 1 view .LVU42
// mandelbrot_neon128.c:45:   const float32x4_t yres = vdupq_n_f32(strtol(argv[7], NULL, 10)); //(xres*(ymax-ymin))/(xmax-xmin);
	.loc 1 45 40 is_stmt 0 view .LVU43
	ldr	x0, [x21, 56]	//, MEM[(char * *)argv_56(D) + 56B]
	mov	w2, 10	//,
	mov	x1, 0	//,
	bl	strtol		//
.LVL18:
// mandelbrot_neon128.c:45:   const float32x4_t yres = vdupq_n_f32(strtol(argv[7], NULL, 10)); //(xres*(ymax-ymin))/(xmax-xmin);
	.loc 1 45 28 discriminator 1 view .LVU44
	scvtf	s13, x0	// _21, tmp266
.LVL19:
	.loc 1 47 3 is_stmt 1 view .LVU45
	fcvt	d0, s14	//, _18
	adrp	x1, .LC3	// tmp200,
	add	x0, x1, :lo12:.LC3	//, tmp200,
	fcvt	d1, s13	//, _21
	bl	printf		//
.LVL20:
	.loc 1 49 3 view .LVU46
// mandelbrot_neon128.c:49:   const char* filename = argv[8];
	.loc 1 49 15 is_stmt 0 view .LVU47
	ldr	x23, [x21, 64]	// filename, MEM[(char * *)argv_56(D) + 64B]
.LVL21:
	.loc 1 52 3 is_stmt 1 view .LVU48
// mandelbrot_neon128.c:52:   FILE * fp = fopen(filename,"wb");
	.loc 1 52 15 is_stmt 0 view .LVU49
	adrp	x1, .LC4	// tmp202,
	add	x1, x1, :lo12:.LC4	//, tmp202,
	mov	x0, x23	//, filename
	bl	fopen		//
.LVL22:
// mandelbrot_neon128.c:53:   if (fp == NULL) {
	.loc 1 53 6 view .LVU50
	ldp	q4, q5, [sp, 112]	// Zx2, Zy2, %sfp
// mandelbrot_neon128.c:52:   FILE * fp = fopen(filename,"wb");
	.loc 1 52 15 view .LVU51
	mov	x22, x0	// fp, tmp267
.LVL23:
	.loc 1 53 3 is_stmt 1 view .LVU52
// mandelbrot_neon128.c:53:   if (fp == NULL) {
	.loc 1 53 6 is_stmt 0 view .LVU53
	cbz	x0, .L17	// fp,
	.loc 1 57 3 is_stmt 1 view .LVU54
.LVL24:
	.loc 1 60 3 view .LVU55
	mov	w2, w20	//, _104
	adrp	x1, .LC6	// tmp207,
	add	x1, x1, :lo12:.LC6	//, tmp207,
	stp	q4, q5, [sp, 112]	// Zx2, Zy2, %sfp
	bl	fprintf		//
.LVL25:
	.loc 1 65 3 view .LVU56
.LBB104:
.LBI104:
	.file 4 "/usr/lib/gcc/aarch64-redhat-linux/13/include/arm_neon.h"
	.loc 4 1694 1 view .LVU57
.LBB105:
	.loc 4 1696 3 view .LVU58
// /usr/lib/gcc/aarch64-redhat-linux/13/include/arm_neon.h:1696:   return __a - __b;
	.loc 4 1696 14 is_stmt 0 view .LVU59
	fsub	s8, s8, s9	// tmp208, _6, _4
.LVL26:
	.loc 4 1696 14 view .LVU60
.LBE105:
.LBE104:
.LBB106:
.LBB107:
	fsub	s11, s11, s12	// tmp209, _10, _8
.LVL27:
	.loc 4 1696 14 view .LVU61
.LBE107:
.LBE106:
// mandelbrot_neon128.c:73:   for (j = 0; j < strtol(argv[6], NULL, 10); j++) { //iterate through y axis
	.loc 1 73 19 discriminator 1 view .LVU62
	ldr	x0, [x21, 48]	//, MEM[(char * *)argv_56(D) + 48B]
	mov	w2, 10	//,
// mandelbrot_neon128.c:73:   for (j = 0; j < strtol(argv[6], NULL, 10); j++) { //iterate through y axis
	.loc 1 73 3 view .LVU63
	ldp	q4, q5, [sp, 112]	// Zx2, Zy2, %sfp
// mandelbrot_neon128.c:73:   for (j = 0; j < strtol(argv[6], NULL, 10); j++) { //iterate through y axis
	.loc 1 73 19 discriminator 1 view .LVU64
	mov	x1, 0	//,
// mandelbrot_neon128.c:65:   const float32x4_t stepx=(vsubq_f32(xmax,xmin)/xres);
	.loc 1 65 21 discriminator 1 view .LVU65
	fdiv	s8, s8, s14	// _178, tmp208, _18
.LVL28:
	.loc 1 66 3 is_stmt 1 view .LVU66
.LBB109:
.LBI106:
	.loc 4 1694 1 view .LVU67
.LBB108:
	.loc 4 1696 3 view .LVU68
	.loc 4 1696 3 is_stmt 0 view .LVU69
.LBE108:
.LBE109:
// mandelbrot_neon128.c:73:   for (j = 0; j < strtol(argv[6], NULL, 10); j++) { //iterate through y axis
	.loc 1 73 3 view .LVU70
	mov	x23, 0	// ivtmp.34,
.LVL29:
// mandelbrot_neon128.c:66:   const float32x4_t stepy=(vsubq_f32(ymax,ymin)/yres);
	.loc 1 66 21 discriminator 1 view .LVU71
	fdiv	s11, s11, s13	// _180, tmp209, _21
.LVL30:
	.loc 1 68 3 is_stmt 1 view .LVU72
	.loc 1 70 3 view .LVU73
	.loc 1 71 3 view .LVU74
	.loc 1 73 3 view .LVU75
	.loc 1 73 17 discriminator 1 view .LVU76
	stp	q4, q5, [sp, 112]	// Zx2, Zy2, %sfp
// mandelbrot_neon128.c:73:   for (j = 0; j < strtol(argv[6], NULL, 10); j++) { //iterate through y axis
	.loc 1 73 19 is_stmt 0 discriminator 1 view .LVU77
	bl	strtol		//
.LVL31:
// mandelbrot_neon128.c:73:   for (j = 0; j < strtol(argv[6], NULL, 10); j++) { //iterate through y axis
	.loc 1 73 17 discriminator 1 view .LVU78
	cmp	x0, x23	// tmp269, ivtmp.34
	ldp	q4, q5, [sp, 112]	// Zx2, Zy2, %sfp
	ble	.L18		//,
.LVL32:
	.p2align 3,,7
.L11:
.LBB110:
	.loc 1 74 5 is_stmt 1 view .LVU79
	.loc 1 75 5 view .LVU80
// mandelbrot_neon128.c:75:     y = ymin + mj * stepy; 
	.loc 1 75 7 is_stmt 0 view .LVU81
	scvtf	s7, w23	// tmp210, ivtmp.34
// mandelbrot_neon128.c:76:     for(i = 0; i < strtol(argv[7], NULL, 10); i++) { //iterate through x axis
	.loc 1 76 5 view .LVU82
	mov	x20, 0	// ivtmp.31,
// mandelbrot_neon128.c:75:     y = ymin + mj * stepy; 
	.loc 1 75 7 view .LVU83
	fmadd	s7, s7, s11, s12	// _182, tmp210, _180, _8
	dup	v7.4s, v7.s[0]	// y, _182
.LVL33:
	.loc 1 76 5 is_stmt 1 view .LVU84
	.p2align 3,,7
.L5:
	.loc 1 76 18 discriminator 1 view .LVU85
// mandelbrot_neon128.c:76:     for(i = 0; i < strtol(argv[7], NULL, 10); i++) { //iterate through x axis
	.loc 1 76 20 is_stmt 0 discriminator 1 view .LVU86
	ldr	x0, [x21, 56]	//, MEM[(char * *)argv_56(D) + 56B]
	mov	w2, 10	//,
	mov	x1, 0	//,
	stp	q7, q4, [sp, 112]	// y, Zx2, %sfp
.LVL34:
	.loc 1 76 20 discriminator 1 view .LVU87
	str	q5, [sp, 144]	// Zy2, %sfp
.LVL35:
	.loc 1 76 20 discriminator 1 view .LVU88
	bl	strtol		//
.LVL36:
// mandelbrot_neon128.c:76:     for(i = 0; i < strtol(argv[7], NULL, 10); i++) { //iterate through x axis
	.loc 1 76 18 discriminator 1 view .LVU89
	cmp	x0, x20	// tmp268, ivtmp.31
	ldp	q7, q4, [sp, 112]	// y, Zx2, %sfp
	ldr	q5, [sp, 144]	// Zy2, %sfp
	movi	v13.4s, 0	// tmp250
	fmov	v6.4s, 4.0e+0	// tmp254
	ble	.L19		//,
.LBB111:
	.loc 1 77 9 is_stmt 1 view .LVU90
.LVL37:
	.loc 1 78 9 view .LVU91
// mandelbrot_neon128.c:85:         float32x4_t mk = vdupq_n_f32(k);
	.loc 1 85 26 is_stmt 0 view .LVU92
	scvtf	s0, w19	// _29, k
// mandelbrot_neon128.c:84:         float32x4_t mmaxiter = vdupq_n_f32(maxiter);
	.loc 1 84 32 view .LVU93
	scvtf	s16, s10	// _28, _102
.LBB112:
.LBB113:
// /usr/lib/gcc/aarch64-redhat-linux/13/include/arm_neon.h:338:   return __a + __b;
	.loc 4 338 14 view .LVU94
	fadd	v1.4s, v4.4s, v5.4s	// tmp222, Zx2, Zy2
.LBE113:
.LBE112:
// mandelbrot_neon128.c:78:         x = xmin + mi * stepx;
	.loc 1 78 11 view .LVU95
	scvtf	s2, w20	// tmp213, ivtmp.31
.LBB117:
.LBB118:
// /usr/lib/gcc/aarch64-redhat-linux/13/include/arm_neon.h:10805:   return (float32x4_t) {__a, __a, __a, __a};
	.loc 4 10805 10 view .LVU96
	dup	v14.4s, v0.s[0]	// _117, _29
.LBE118:
.LBE117:
.LBB120:
.LBB121:
	dup	v16.4s, v16.s[0]	// _116, _28
.LBE121:
.LBE120:
.LBB123:
.LBB124:
// /usr/lib/gcc/aarch64-redhat-linux/13/include/arm_neon.h:9042:   return (uint32x4_t) (__a < __b);
	.loc 4 9042 28 view .LVU97
	fcmgt	v0.4s, v6.4s, v1.4s	// tmp223, tmp254, tmp222
.LBE124:
.LBE123:
// mandelbrot_neon128.c:78:         x = xmin + mi * stepx;
	.loc 1 78 11 view .LVU98
	fmadd	s2, s2, s8, s9	// _184, tmp213, _178, _4
.LBB128:
.LBB129:
// /usr/lib/gcc/aarch64-redhat-linux/13/include/arm_neon.h:9042:   return (uint32x4_t) (__a < __b);
	.loc 4 9042 28 view .LVU99
	fcmgt	v3.4s, v16.4s, v14.4s	// _31, _116, _117
.LBE129:
.LBE128:
.LBB132:
.LBB133:
// /usr/lib/gcc/aarch64-redhat-linux/13/include/arm_neon.h:1136:   return __a & __b;
	.loc 4 1136 14 view .LVU100
	and	v0.16b, v0.16b, v3.16b	// tmp226, tmp223, _31
.LBE133:
.LBE132:
// mandelbrot_neon128.c:78:         x = xmin + mi * stepx;
	.loc 1 78 11 view .LVU101
	dup	v2.4s, v2.s[0]	// x, _184
.LVL38:
	.loc 1 79 9 is_stmt 1 view .LVU102
	.loc 1 80 9 view .LVU103
	.loc 1 81 9 view .LVU104
	.loc 1 82 9 view .LVU105
	.loc 1 84 9 view .LVU106
.LBB137:
.LBI120:
	.loc 4 10803 1 view .LVU107
.LBB122:
	.loc 4 10805 3 view .LVU108
	.loc 4 10805 3 is_stmt 0 view .LVU109
.LBE122:
.LBE137:
	.loc 1 85 9 is_stmt 1 view .LVU110
.LBB138:
.LBI117:
	.loc 4 10803 1 view .LVU111
.LBB119:
	.loc 4 10805 3 view .LVU112
	.loc 4 10805 3 is_stmt 0 view .LVU113
.LBE119:
.LBE138:
	.loc 1 86 9 is_stmt 1 view .LVU114
	.loc 1 87 9 view .LVU115
	.loc 1 88 9 view .LVU116
	.loc 1 89 7 view .LVU117
	.loc 1 89 19 discriminator 1 view .LVU118
.LBB139:
.LBI128:
	.loc 4 9040 1 view .LVU119
.LBB130:
	.loc 4 9042 3 view .LVU120
	.loc 4 9042 3 is_stmt 0 view .LVU121
.LBE130:
.LBE139:
.LBB140:
.LBI112:
	.loc 4 336 1 is_stmt 1 view .LVU122
.LBB114:
	.loc 4 338 3 view .LVU123
	.loc 4 338 3 is_stmt 0 view .LVU124
.LBE114:
.LBE140:
.LBB141:
.LBI123:
	.loc 4 9040 1 is_stmt 1 view .LVU125
.LBB125:
	.loc 4 9042 3 view .LVU126
	.loc 4 9042 3 is_stmt 0 view .LVU127
.LBE125:
.LBE141:
.LBB142:
.LBI132:
	.loc 4 1134 1 is_stmt 1 view .LVU128
.LBB134:
	.loc 4 1136 3 view .LVU129
	.loc 4 1136 3 is_stmt 0 view .LVU130
.LBE134:
.LBE142:
.LBB143:
.LBI143:
	.loc 4 11465 1 is_stmt 1 view .LVU131
	.loc 4 11467 3 view .LVU132
.LBB144:
	.loc 4 11467 10 view .LVU133
	.loc 4 11467 10 discriminator 1 view .LVU134
	.loc 4 11467 10 is_stmt 0 discriminator 1 view .LVU135
	umov	w0, v0.s[3]	// tmp227, tmp226,
.LBE144:
.LBE143:
// mandelbrot_neon128.c:89:       for (k = 1; vdups_laneq_u32(vandq_u32(vcltq_f32(mk,mmaxiter), vcltq_f32(vaddq_f32(Zx2,Zy2), mcl2)),3); k++) {
	.loc 1 89 19 discriminator 5 view .LVU136
	cbz	w0, .L12	// tmp227,
// mandelbrot_neon128.c:80:         float32x4_t Zy = vdupq_n_f32(0.0);
	.loc 1 80 26 view .LVU137
	movi	v1.4s, 0	// Zy
// mandelbrot_neon128.c:89:       for (k = 1; vdups_laneq_u32(vandq_u32(vcltq_f32(mk,mmaxiter), vcltq_f32(vaddq_f32(Zx2,Zy2), mcl2)),3); k++) {
	.loc 1 89 14 view .LVU138
	mov	w19, 1	// k,
.LVL39:
	.p2align 3,,7
.L7:
	.loc 1 90 13 is_stmt 1 view .LVU139
.LBB147:
.LBI147:
	.loc 4 336 1 view .LVU140
.LBB148:
	.loc 4 338 3 view .LVU141
.LBE148:
.LBE147:
.LBB152:
.LBB153:
// /usr/lib/gcc/aarch64-redhat-linux/13/include/arm_neon.h:1696:   return __a - __b;
	.loc 4 1696 14 is_stmt 0 view .LVU142
	fsub	v4.4s, v4.4s, v5.4s	// tmp229, Zx2, Zy2
.LVL40:
	.loc 4 1696 14 view .LVU143
.LBE153:
.LBE152:
// mandelbrot_neon128.c:89:       for (k = 1; vdups_laneq_u32(vandq_u32(vcltq_f32(mk,mmaxiter), vcltq_f32(vaddq_f32(Zx2,Zy2), mcl2)),3); k++) {
	.loc 1 89 111 discriminator 3 view .LVU144
	add	w19, w19, 1	// k, k,
.LVL41:
.LBB155:
.LBB149:
// /usr/lib/gcc/aarch64-redhat-linux/13/include/arm_neon.h:338:   return __a + __b;
	.loc 4 338 14 view .LVU145
	mov	v0.16b, v7.16b	// Zy, y
.LBE149:
.LBE155:
.LBB156:
.LBB157:
	fadd	v4.4s, v4.4s, v2.4s	// _87, tmp229, x
.LBE157:
.LBE156:
.LBB159:
.LBB150:
	fmla	v0.4s, v1.4s, v13.4s	// Zy, Zy, tmp250
.LBE150:
.LBE159:
.LBB160:
.LBB161:
// /usr/lib/gcc/aarch64-redhat-linux/13/include/arm_neon.h:996:   return __a * __b;
	.loc 4 996 14 view .LVU146
	fmul	v4.4s, v4.4s, v4.4s	// Zx2, _87, _87
.LBE161:
.LBE160:
.LBB163:
.LBB164:
	fmul	v5.4s, v0.4s, v0.4s	// Zy2, Zy, Zy
.LVL42:
	.loc 4 996 14 view .LVU147
.LBE164:
.LBE163:
.LBB166:
.LBB151:
// /usr/lib/gcc/aarch64-redhat-linux/13/include/arm_neon.h:338:   return __a + __b;
	.loc 4 338 14 view .LVU148
	mov	v1.16b, v0.16b	// Zy, Zy
.LVL43:
	.loc 4 338 14 view .LVU149
.LBE151:
.LBE166:
	.loc 1 91 13 is_stmt 1 view .LVU150
.LBB167:
.LBI152:
	.loc 4 1694 1 view .LVU151
.LBB154:
	.loc 4 1696 3 view .LVU152
	.loc 4 1696 3 is_stmt 0 view .LVU153
.LBE154:
.LBE167:
.LBB168:
.LBI156:
	.loc 4 336 1 is_stmt 1 view .LVU154
.LBB158:
	.loc 4 338 3 view .LVU155
	.loc 4 338 3 is_stmt 0 view .LVU156
.LBE158:
.LBE168:
	.loc 1 92 13 is_stmt 1 view .LVU157
.LBB169:
.LBI160:
	.loc 4 994 1 view .LVU158
.LBB162:
	.loc 4 996 3 view .LVU159
	.loc 4 996 3 is_stmt 0 view .LVU160
.LBE162:
.LBE169:
	.loc 1 93 13 is_stmt 1 view .LVU161
.LBB170:
.LBI163:
	.loc 4 994 1 view .LVU162
.LBB165:
	.loc 4 996 3 view .LVU163
	.loc 4 996 3 is_stmt 0 view .LVU164
.LBE165:
.LBE170:
	.loc 1 89 111 is_stmt 1 discriminator 3 view .LVU165
	.loc 1 89 19 discriminator 1 view .LVU166
.LBB171:
	.loc 4 9040 1 view .LVU167
.LBB131:
	.loc 4 9042 3 view .LVU168
	.loc 4 9042 3 is_stmt 0 view .LVU169
.LBE131:
.LBE171:
.LBB172:
	.loc 4 336 1 is_stmt 1 view .LVU170
.LBB115:
	.loc 4 338 3 view .LVU171
	.loc 4 338 3 is_stmt 0 view .LVU172
.LBE115:
.LBE172:
.LBB173:
	.loc 4 9040 1 is_stmt 1 view .LVU173
.LBB126:
	.loc 4 9042 3 view .LVU174
	.loc 4 9042 3 is_stmt 0 view .LVU175
.LBE126:
.LBE173:
.LBB174:
	.loc 4 1134 1 is_stmt 1 view .LVU176
.LBB135:
	.loc 4 1136 3 view .LVU177
	.loc 4 1136 3 is_stmt 0 view .LVU178
.LBE135:
.LBE174:
.LBB175:
	.loc 4 11465 1 is_stmt 1 view .LVU179
	.loc 4 11467 3 view .LVU180
.LBB145:
	.loc 4 11467 10 view .LVU181
	.loc 4 11467 10 discriminator 1 view .LVU182
	.loc 4 11467 10 is_stmt 0 discriminator 1 view .LVU183
.LBE145:
.LBE175:
.LBB176:
.LBB116:
// /usr/lib/gcc/aarch64-redhat-linux/13/include/arm_neon.h:338:   return __a + __b;
	.loc 4 338 14 view .LVU184
	fadd	v0.4s, v4.4s, v5.4s	// tmp230, Zx2, Zy2
.LVL44:
	.loc 4 338 14 view .LVU185
.LBE116:
.LBE176:
.LBB177:
.LBB127:
// /usr/lib/gcc/aarch64-redhat-linux/13/include/arm_neon.h:9042:   return (uint32x4_t) (__a < __b);
	.loc 4 9042 28 view .LVU186
	fcmgt	v0.4s, v6.4s, v0.4s	// tmp231, tmp254, tmp230
.LBE127:
.LBE177:
.LBB178:
.LBB136:
// /usr/lib/gcc/aarch64-redhat-linux/13/include/arm_neon.h:1136:   return __a & __b;
	.loc 4 1136 14 view .LVU187
	and	v0.16b, v0.16b, v3.16b	// tmp234, tmp231, _31
.LBE136:
.LBE178:
.LBB179:
.LBB146:
// /usr/lib/gcc/aarch64-redhat-linux/13/include/arm_neon.h:11467:   return __aarch64_vget_lane_any (__a, __b);
	.loc 4 11467 10 discriminator 1 view .LVU188
	umov	w0, v0.s[3]	// tmp235, tmp234,
.LBE146:
.LBE179:
// mandelbrot_neon128.c:89:       for (k = 1; vdups_laneq_u32(vandq_u32(vcltq_f32(mk,mmaxiter), vcltq_f32(vaddq_f32(Zx2,Zy2), mcl2)),3); k++) {
	.loc 1 89 19 discriminator 5 view .LVU189
	cbnz	w0, .L7	// tmp235,
.LVL45:
.L6:
	.loc 1 94 8 is_stmt 1 view .LVU190
	.loc 1 96 7 view .LVU191
.LBB180:
.LBI180:
	.loc 4 8197 1 view .LVU192
.LBB181:
	.loc 4 8199 3 view .LVU193
	.loc 4 8199 3 is_stmt 0 view .LVU194
.LBE181:
.LBE180:
.LBB183:
.LBI183:
	.loc 4 11465 1 is_stmt 1 view .LVU195
	.loc 4 11467 3 view .LVU196
.LBB184:
	.loc 4 11467 10 view .LVU197
	.loc 4 11467 10 discriminator 1 view .LVU198
	.loc 4 11467 10 is_stmt 0 discriminator 1 view .LVU199
.LBE184:
.LBE183:
.LBB186:
.LBB182:
// /usr/lib/gcc/aarch64-redhat-linux/13/include/arm_neon.h:8199:   return (uint32x4_t) (__a >= __b);
	.loc 4 8199 28 view .LVU200
	fcmge	v14.4s, v14.4s, v16.4s	// tmp236, _117, _116
.LVL46:
	.loc 4 8199 28 view .LVU201
	stp	q7, q4, [sp, 112]	// y, Zx2, %sfp
	str	q5, [sp, 144]	// Zy2, %sfp
.LBE182:
.LBE186:
.LBB187:
.LBB185:
// /usr/lib/gcc/aarch64-redhat-linux/13/include/arm_neon.h:11467:   return __aarch64_vget_lane_any (__a, __b);
	.loc 4 11467 10 discriminator 1 view .LVU202
	umov	w0, v14.s[3]	// tmp238, tmp236,
.LBE185:
.LBE187:
// mandelbrot_neon128.c:96:       if (vdups_laneq_u32(vcgeq_f32(mk, mmaxiter),3)) {
	.loc 1 96 10 discriminator 2 view .LVU203
	cbz	w0, .L8	// tmp238,
.LBB188:
	.loc 1 99 9 is_stmt 1 view .LVU204
// mandelbrot_neon128.c:100:         fwrite (black, 6, 1, fp);
	.loc 1 100 9 is_stmt 0 view .LVU205
	mov	x3, x22	//, fp
	add	x0, sp, 160	// tmp277,,
	mov	x2, 1	//,
	mov	x1, 6	//,
// mandelbrot_neon128.c:99:         const unsigned char black[] = {0, 0, 0, 0, 0, 0};
	.loc 1 99 29 view .LVU206
	str	wzr, [sp, 160]	//, MEM[(unsigned char[6] *)_183]
	add	x20, x20, 1	// ivtmp.31, ivtmp.31,
.LVL47:
	.loc 1 99 29 view .LVU207
	strh	wzr, [sp, 164]	//, MEM[(unsigned char[6] *)_183]
	.loc 1 100 9 is_stmt 1 view .LVU208
	bl	fwrite		//
.LVL48:
	.loc 1 100 9 is_stmt 0 view .LVU209
.LBE188:
	ldp	q7, q4, [sp, 112]	// y, Zx2, %sfp
	ldr	q5, [sp, 144]	// Zy2, %sfp
	.loc 1 121 8 is_stmt 1 view .LVU210
.LBE111:
	.loc 1 76 48 discriminator 2 view .LVU211
.LVL49:
	.loc 1 76 48 is_stmt 0 discriminator 2 view .LVU212
	b	.L5		//
.LVL50:
	.p2align 2,,3
.L8:
.LBB198:
.LBB189:
	.loc 1 111 9 is_stmt 1 view .LVU213
	.loc 1 112 9 view .LVU214
	.loc 1 113 9 view .LVU215
	.loc 1 114 9 view .LVU216
.LBB190:
.LBI190:
	.loc 4 21310 1 view .LVU217
.LBB191:
	.loc 4 21312 3 view .LVU218
// /usr/lib/gcc/aarch64-redhat-linux/13/include/arm_neon.h:21312:   return __builtin_aarch64_lshrv4si_uus (__a, __b);
	.loc 4 21312 10 is_stmt 0 view .LVU219
	fmov	s0, w19	// k, k
	and	w4, w19, 255	// _83, k,
.LBE191:
.LBE190:
// mandelbrot_neon128.c:120:         fwrite(color, 6, 1, fp);
	.loc 1 120 9 view .LVU220
	mov	x3, x22	//, fp
	add	x0, sp, 160	// tmp278,,
.LBB194:
.LBB192:
// /usr/lib/gcc/aarch64-redhat-linux/13/include/arm_neon.h:21312:   return __builtin_aarch64_lshrv4si_uus (__a, __b);
	.loc 4 21312 10 view .LVU221
	ushr	v1.2s, v0.2s, 8	// _33, k,
.LBE192:
.LBE194:
.LBB195:
.LBB196:
// /usr/lib/gcc/aarch64-redhat-linux/13/include/arm_neon.h:1136:   return __a & __b;
	.loc 4 1136 14 view .LVU222
	dup	v0.4s, w4	// tmp242, _83
.LBE196:
.LBE195:
// mandelbrot_neon128.c:120:         fwrite(color, 6, 1, fp);
	.loc 1 120 9 view .LVU223
	mov	x2, 1	//,
	mov	x1, 6	//,
	add	x20, x20, 1	// ivtmp.31, ivtmp.31,
.LVL51:
.LBB197:
.LBB193:
// /usr/lib/gcc/aarch64-redhat-linux/13/include/arm_neon.h:21312:   return __builtin_aarch64_lshrv4si_uus (__a, __b);
	.loc 4 21312 10 view .LVU224
	dup	v1.4s, v1.s[0]	// tmp240, _33
.LVL52:
	.loc 4 21312 10 view .LVU225
.LBE193:
.LBE197:
// mandelbrot_neon128.c:115:         color[1] = vandq_u32(mmk,ZSS); //LSB
	.loc 1 115 18 discriminator 1 view .LVU226
	stp	q1, q0, [sp, 160]	// tmp240, tmp242, MEM[(uint32x4_t[6] *)_183][0]
	.loc 1 116 9 is_stmt 1 view .LVU227
// mandelbrot_neon128.c:117:         color[3] = vandq_u32(mmk,ZSS);
	.loc 1 117 18 is_stmt 0 discriminator 1 view .LVU228
	stp	q1, q0, [sp, 192]	// tmp240, tmp242, MEM[(uint32x4_t[6] *)_183][2]
	.loc 1 118 9 is_stmt 1 view .LVU229
// mandelbrot_neon128.c:119:         color[5] = vandq_u32(mmk,ZSS);
	.loc 1 119 18 is_stmt 0 discriminator 1 view .LVU230
	stp	q1, q0, [sp, 224]	// tmp240, tmp242, MEM[(uint32x4_t[6] *)_183][4]
	.loc 1 120 9 is_stmt 1 view .LVU231
	bl	fwrite		//
.LVL53:
	.loc 1 120 9 is_stmt 0 view .LVU232
	ldp	q7, q4, [sp, 112]	// y, Zx2, %sfp
	ldr	q5, [sp, 144]	// Zy2, %sfp
.LBE189:
	.loc 1 121 8 is_stmt 1 view .LVU233
.LBE198:
	.loc 1 76 48 discriminator 2 view .LVU234
.LVL54:
	.loc 1 76 48 is_stmt 0 discriminator 2 view .LVU235
	b	.L5		//
.LVL55:
	.p2align 2,,3
.L19:
	.loc 1 76 48 discriminator 2 view .LVU236
.LBE110:
	.loc 1 73 47 is_stmt 1 discriminator 2 view .LVU237
// mandelbrot_neon128.c:73:   for (j = 0; j < strtol(argv[6], NULL, 10); j++) { //iterate through y axis
	.loc 1 73 19 is_stmt 0 discriminator 1 view .LVU238
	ldr	x0, [x21, 48]	//, MEM[(char * *)argv_56(D) + 48B]
	add	x23, x23, 1	// ivtmp.34, ivtmp.34,
.LVL56:
	.loc 1 73 17 is_stmt 1 discriminator 1 view .LVU239
// mandelbrot_neon128.c:73:   for (j = 0; j < strtol(argv[6], NULL, 10); j++) { //iterate through y axis
	.loc 1 73 19 is_stmt 0 discriminator 1 view .LVU240
	mov	w2, 10	//,
	mov	x1, 0	//,
	stp	q4, q5, [sp, 112]	// Zx2, Zy2, %sfp
.LVL57:
	.loc 1 73 19 discriminator 1 view .LVU241
	bl	strtol		//
.LVL58:
// mandelbrot_neon128.c:73:   for (j = 0; j < strtol(argv[6], NULL, 10); j++) { //iterate through y axis
	.loc 1 73 17 discriminator 1 view .LVU242
	ldp	q4, q5, [sp, 112]	// Zx2, Zy2, %sfp
	cmp	x0, x23	// tmp269, ivtmp.34
	bgt	.L11		//,
.LVL59:
.L18:
	.loc 1 124 3 is_stmt 1 view .LVU243
	mov	x0, x22	//, fp
	bl	fclose		//
.LVL60:
	.loc 1 125 3 view .LVU244
// mandelbrot_neon128.c:126: }
	.loc 1 126 1 is_stmt 0 view .LVU245
	ldp	x19, x20, [sp, 16]	//,,
.LVL61:
	.loc 1 126 1 view .LVU246
	mov	w0, 0	//,
	ldp	x21, x22, [sp, 32]	//,,
.LVL62:
	.loc 1 126 1 view .LVU247
	ldr	x23, [sp, 48]	//,
.LVL63:
	.loc 1 126 1 view .LVU248
	ldr	d14, [sp, 56]	//,
	ldp	d8, d9, [sp, 64]	//,,
.LVL64:
	.loc 1 126 1 view .LVU249
	ldp	d10, d11, [sp, 80]	//,,
.LVL65:
	.loc 1 126 1 view .LVU250
	ldp	d12, d13, [sp, 96]	//,,
.LVL66:
	.loc 1 126 1 view .LVU251
	ldp	x29, x30, [sp], 256	//,,,
	.cfi_remember_state
	.cfi_restore 30
	.cfi_restore 29
	.cfi_restore 23
	.cfi_restore 21
	.cfi_restore 22
	.cfi_restore 19
	.cfi_restore 20
	.cfi_restore 78
	.cfi_restore 76
	.cfi_restore 77
	.cfi_restore 74
	.cfi_restore 75
	.cfi_restore 72
	.cfi_restore 73
	.cfi_def_cfa_offset 0
	ret	
.LVL67:
	.p2align 2,,3
.L12:
	.cfi_restore_state
.LBB200:
.LBB199:
// mandelbrot_neon128.c:89:       for (k = 1; vdups_laneq_u32(vandq_u32(vcltq_f32(mk,mmaxiter), vcltq_f32(vaddq_f32(Zx2,Zy2), mcl2)),3); k++) {
	.loc 1 89 14 view .LVU252
	mov	w19, 1	// k,
	b	.L6		//
.LVL68:
.L16:
	.loc 1 89 14 view .LVU253
.LBE199:
.LBE200:
	.loc 1 23 5 is_stmt 1 view .LVU254
	ldr	x1, [x1]	//, *argv_56(D)
.LVL69:
	.loc 1 23 5 is_stmt 0 view .LVU255
	adrp	x0, .LC0	// tmp181,
.LVL70:
	.loc 1 23 5 view .LVU256
	add	x0, x0, :lo12:.LC0	//, tmp181,
	bl	printf		//
.LVL71:
	.loc 1 24 5 is_stmt 1 view .LVU257
	ldr	x1, [x21]	//, *argv_56(D)
	adrp	x0, .LC1	// tmp183,
	add	x0, x0, :lo12:.LC1	//, tmp183,
	bl	printf		//
.LVL72:
	.loc 1 25 5 view .LVU258
	mov	w0, 1	//,
	bl	exit		//
.LVL73:
.L17:
	.loc 1 54 5 view .LVU259
	mov	x1, x23	//, filename
	adrp	x0, .LC5	// tmp205,
.LVL74:
	.loc 1 54 5 is_stmt 0 view .LVU260
	add	x0, x0, :lo12:.LC5	//, tmp205,
	bl	printf		//
.LVL75:
	.loc 1 55 5 is_stmt 1 view .LVU261
	mov	w0, 1	//,
	bl	exit		//
.LVL76:
	.cfi_endproc
.LFE3922:
	.size	main, .-main
	.text
.Letext0:
	.file 5 "/usr/include/bits/types.h"
	.file 6 "/usr/include/bits/stdint-uintn.h"
	.file 7 "/usr/lib/gcc/aarch64-redhat-linux/13/include/stddef.h"
	.file 8 "/usr/include/bits/types/struct_FILE.h"
	.file 9 "/usr/include/bits/types/FILE.h"
	.file 10 "/usr/include/stdio.h"
	.section	.note.GNU-stack,"",@progbits
