
mandelbrot_single_thread_v2.o:     file format elf64-littleaarch64


Disassembly of section .text.startup:

0000000000000000 <main>:
   0:	a9b77bfd 	stp	x29, x30, [sp, #-144]!
   4:	910003fd 	mov	x29, sp
   8:	a90153f3 	stp	x19, x20, [sp, #16]
   c:	aa0103f4 	mov	x20, x1
  10:	a9025bf5 	stp	x21, x22, [sp, #32]
  14:	a90363f7 	stp	x23, x24, [sp, #48]
  18:	6d0427e8 	stp	d8, d9, [sp, #64]
  1c:	6d052fea 	stp	d10, d11, [sp, #80]
  20:	6d0637ec 	stp	d12, d13, [sp, #96]
  24:	fd003bee 	str	d14, [sp, #112]
  28:	7100201f 	cmp	w0, #0x8
  2c:	54001181 	b.ne	25c <main+0x25c>  // b.any
  30:	f9400680 	ldr	x0, [x20, #8]
  34:	d2800001 	mov	x1, #0x0                   	// #0
  38:	94000000 	bl	0 <strtod>
  3c:	1e604008 	fmov	d8, d0
  40:	f9400a80 	ldr	x0, [x20, #16]
  44:	d2800001 	mov	x1, #0x0                   	// #0
  48:	94000000 	bl	0 <strtod>
  4c:	1e60400c 	fmov	d12, d0
  50:	f9400e80 	ldr	x0, [x20, #24]
  54:	d2800001 	mov	x1, #0x0                   	// #0
  58:	94000000 	bl	0 <strtod>
  5c:	1e60400d 	fmov	d13, d0
  60:	f9401280 	ldr	x0, [x20, #32]
  64:	d2800001 	mov	x1, #0x0                   	// #0
  68:	94000000 	bl	0 <strtod>
  6c:	1e60400a 	fmov	d10, d0
  70:	f9401680 	ldr	x0, [x20, #40]
  74:	52800142 	mov	w2, #0xa                   	// #10
  78:	d2800001 	mov	x1, #0x0                   	// #0
  7c:	94000000 	bl	0 <strtol>
  80:	12003c13 	and	w19, w0, #0xffff
  84:	f9401a80 	ldr	x0, [x20, #48]
  88:	52800142 	mov	w2, #0xa                   	// #10
  8c:	d2800001 	mov	x1, #0x0                   	// #0
  90:	94000000 	bl	0 <strtol>
  94:	1e620009 	scvtf	d9, w0
  98:	1e6d394b 	fsub	d11, d10, d13
  9c:	1e68398e 	fsub	d14, d12, d8
  a0:	aa0003f7 	mov	x23, x0
  a4:	2a0003f6 	mov	w22, w0
  a8:	f9401e80 	ldr	x0, [x20, #56]
  ac:	90000001 	adrp	x1, 0 <main>
  b0:	1e6b0920 	fmul	d0, d9, d11
  b4:	91000021 	add	x1, x1, #0x0
  b8:	1e6e1800 	fdiv	d0, d0, d14
  bc:	1e780018 	fcvtzs	w24, d0
  c0:	94000000 	bl	0 <fopen>
  c4:	1e604100 	fmov	d0, d8
  c8:	1e6041a2 	fmov	d2, d13
  cc:	1e604181 	fmov	d1, d12
  d0:	1e604143 	fmov	d3, d10
  d4:	7104027f 	cmp	w19, #0x100
  d8:	52802005 	mov	w5, #0x100                 	// #256
  dc:	1a852265 	csel	w5, w19, w5, cs	// cs = hs, nlast
  e0:	2a1703e3 	mov	w3, w23
  e4:	12003ca5 	and	w5, w5, #0xffff
  e8:	2a1803e4 	mov	w4, w24
  ec:	2a1303e2 	mov	w2, w19
  f0:	aa0003f5 	mov	x21, x0
  f4:	90000001 	adrp	x1, 0 <main>
  f8:	91000021 	add	x1, x1, #0x0
  fc:	94000000 	bl	0 <fprintf>
 100:	1e6919c9 	fdiv	d9, d14, d9
 104:	1e620300 	scvtf	d0, w24
 108:	1e60196b 	fdiv	d11, d11, d0
 10c:	7100031f 	cmp	w24, #0x0
 110:	540008ed 	b.le	22c <main+0x22c>
 114:	2f00e40d 	movi	d13, #0x0
 118:	1f4da96d 	fmsub	d13, d11, d13, d10
 11c:	710002ff 	cmp	w23, #0x0
 120:	5400086d 	b.le	22c <main+0x22c>
 124:	52800017 	mov	w23, #0x0                   	// #0
 128:	1e62100c 	fmov	d12, #4.000000000000000000e+00
 12c:	d503201f 	nop
 130:	52800014 	mov	w20, #0x0                   	// #0
 134:	d503201f 	nop
 138:	7100067f 	cmp	w19, #0x1
 13c:	5400058d 	b.le	1ec <main+0x1ec>
 140:	1e620285 	scvtf	d5, w20
 144:	1f4920a5 	fmadd	d5, d5, d9, d8
 148:	2f00e403 	movi	d3, #0x0
 14c:	52800020 	mov	w0, #0x1                   	// #1
 150:	1e604061 	fmov	d1, d3
 154:	1e604062 	fmov	d2, d3
 158:	1e604060 	fmov	d0, d3
 15c:	d503201f 	nop
 160:	1e632824 	fadd	d4, d1, d3
 164:	1e6c2090 	fcmpe	d4, d12
 168:	54000304 	b.mi	1c8 <main+0x1c8>  // b.first
 16c:	6b00027f 	cmp	w19, w0
 170:	540003ed 	b.le	1ec <main+0x1ec>
 174:	d3483c07 	ubfx	x7, x0, #8, #8
 178:	52800005 	mov	w5, #0x0                   	// #0
 17c:	12001c06 	and	w6, w0, #0xff
 180:	5ac00404 	rev16	w4, w0
 184:	33001ce5 	bfxil	w5, w7, #0, #8
 188:	11000694 	add	w20, w20, #0x1
 18c:	aa1503e3 	mov	x3, x21
 190:	910223e0 	add	x0, sp, #0x88
 194:	33181cc5 	bfi	w5, w6, #8, #8
 198:	d2800022 	mov	x2, #0x1                   	// #1
 19c:	d28000c1 	mov	x1, #0x6                   	// #6
 1a0:	79011be4 	strh	w4, [sp, #140]
 1a4:	33101ce5 	bfi	w5, w7, #16, #8
 1a8:	33081cc5 	bfi	w5, w6, #24, #8
 1ac:	b9008be5 	str	w5, [sp, #136]
 1b0:	94000000 	bl	0 <fwrite>
 1b4:	6b1402df 	cmp	w22, w20
 1b8:	540002e0 	b.eq	214 <main+0x214>  // b.none
 1bc:	1e620285 	scvtf	d5, w20
 1c0:	1f452125 	fmadd	d5, d9, d5, d8
 1c4:	17ffffe1 	b	148 <main+0x148>
 1c8:	1e602800 	fadd	d0, d0, d0
 1cc:	1e633821 	fsub	d1, d1, d3
 1d0:	11000400 	add	w0, w0, #0x1
 1d4:	1f423402 	fmadd	d2, d0, d2, d13
 1d8:	1e652820 	fadd	d0, d1, d5
 1dc:	1e600801 	fmul	d1, d0, d0
 1e0:	1e620843 	fmul	d3, d2, d2
 1e4:	6b00027f 	cmp	w19, w0
 1e8:	54fffbc1 	b.ne	160 <main+0x160>  // b.any
 1ec:	11000694 	add	w20, w20, #0x1
 1f0:	aa1503e3 	mov	x3, x21
 1f4:	910223e0 	add	x0, sp, #0x88
 1f8:	d2800022 	mov	x2, #0x1                   	// #1
 1fc:	d28000c1 	mov	x1, #0x6                   	// #6
 200:	b9008bff 	str	wzr, [sp, #136]
 204:	79011bff 	strh	wzr, [sp, #140]
 208:	94000000 	bl	0 <fwrite>
 20c:	6b1402df 	cmp	w22, w20
 210:	54fff941 	b.ne	138 <main+0x138>  // b.any
 214:	110006f7 	add	w23, w23, #0x1
 218:	6b1802ff 	cmp	w23, w24
 21c:	54000080 	b.eq	22c <main+0x22c>  // b.none
 220:	1e6202ed 	scvtf	d13, w23
 224:	1f4da96d 	fmsub	d13, d11, d13, d10
 228:	17ffffc2 	b	130 <main+0x130>
 22c:	aa1503e0 	mov	x0, x21
 230:	94000000 	bl	0 <fclose>
 234:	a94153f3 	ldp	x19, x20, [sp, #16]
 238:	52800000 	mov	w0, #0x0                   	// #0
 23c:	a9425bf5 	ldp	x21, x22, [sp, #32]
 240:	a94363f7 	ldp	x23, x24, [sp, #48]
 244:	6d4427e8 	ldp	d8, d9, [sp, #64]
 248:	6d452fea 	ldp	d10, d11, [sp, #80]
 24c:	6d4637ec 	ldp	d12, d13, [sp, #96]
 250:	fd403bee 	ldr	d14, [sp, #112]
 254:	a8c97bfd 	ldp	x29, x30, [sp], #144
 258:	d65f03c0 	ret
 25c:	f9400021 	ldr	x1, [x1]
 260:	90000000 	adrp	x0, 0 <main>
 264:	91000000 	add	x0, x0, #0x0
 268:	94000000 	bl	0 <printf>
 26c:	f9400281 	ldr	x1, [x20]
 270:	90000000 	adrp	x0, 0 <main>
 274:	91000000 	add	x0, x0, #0x0
 278:	94000000 	bl	0 <printf>
 27c:	52800020 	mov	w0, #0x1                   	// #1
 280:	94000000 	bl	0 <exit>
